################################################################################
#                                                                              #
#      IAR Universal Linker V6.5.1.95                                          #
#                                                                              #
#           Link time     =  21/Feb/2020  17:44:43                             #
#           Target CPU    =  MSP430                                            #
#           List file     =  C:\Git\msp430-uss-library\Library\src\examples\US #
#                            S_Water_Demo\IAR\LPM\List\MSP430FR6007EVM_USS_Wat #
#                            er_Demo_Devel.map                                 #
#           Output file 1 =  C:\Git\msp430-uss-library\Library\src\examples\US #
#                            S_Water_Demo\IAR\LPM\Exe\MSP430FR6007EVM_USS_Wate #
#                            r_Demo_Devel.txt                                  #
#                            Format: msp430_txt                                #
#           Output file 2 =  C:\Git\msp430-uss-library\Library\src\examples\US #
#                            S_Water_Demo\IAR\LPM\Exe\MSP430FR6007EVM_USS_Wate #
#                            r_Demo_Devel.d43                                  #
#                            Format: ubrof10                                   #
#                            UBROF version 10.0.6                              #
#                            Using library modules for C-SPY (-rt)             #
#           Command line  =  -f                                                #
#                            C:\Users\a0273442\AppData\Local\Temp\EW881B.tmp   #
#                            (C:\Git\msp430-uss-library\Library\src\examples\U #
#                            SS_Water_Demo\IAR\LPM\Obj\adc12_b.r43             #
#                            C:\Git\msp430-uss-library\Library\src\examples\US #
#                            S_Water_Demo\IAR\LPM\Obj\aes256.r43               #
#                            C:\Git\msp430-uss-library\Library\src\examples\US #
#                            S_Water_Demo\IAR\LPM\Obj\benchmarkussswLib.r43    #
#                            C:\Git\msp430-uss-library\Library\src\examples\US #
#                            S_Water_Demo\IAR\LPM\Obj\byte_queue.r43           #
#                            C:\Git\msp430-uss-library\Library\src\examples\US #
#                            S_Water_Demo\IAR\LPM\Obj\checksum.r43             #
#                            C:\Git\msp430-uss-library\Library\src\examples\US #
#                            S_Water_Demo\IAR\LPM\Obj\comm.r43                 #
#                            C:\Git\msp430-uss-library\Library\src\examples\US #
#                            S_Water_Demo\IAR\LPM\Obj\comm_config.r43          #
#                            C:\Git\msp430-uss-library\Library\src\examples\US #
#                            S_Water_Demo\IAR\LPM\Obj\comp_e.r43               #
#                            C:\Git\msp430-uss-library\Library\src\examples\US #
#                            S_Water_Demo\IAR\LPM\Obj\crc.r43                  #
#                            C:\Git\msp430-uss-library\Library\src\examples\US #
#                            S_Water_Demo\IAR\LPM\Obj\crc32.r43                #
#                            C:\Git\msp430-uss-library\Library\src\examples\US #
#                            S_Water_Demo\IAR\LPM\Obj\cs.r43                   #
#                            C:\Git\msp430-uss-library\Library\src\examples\US #
#                            S_Water_Demo\IAR\LPM\Obj\dma.r43                  #
#                            C:\Git\msp430-uss-library\Library\src\examples\US #
#                            S_Water_Demo\IAR\LPM\Obj\esi.r43                  #
#                            C:\Git\msp430-uss-library\Library\src\examples\US #
#                            S_Water_Demo\IAR\LPM\Obj\eusci_a_spi.r43          #
#                            C:\Git\msp430-uss-library\Library\src\examples\US #
#                            S_Water_Demo\IAR\LPM\Obj\eusci_a_uart.r43         #
#                            C:\Git\msp430-uss-library\Library\src\examples\US #
#                            S_Water_Demo\IAR\LPM\Obj\eusci_b_i2c.r43          #
#                            C:\Git\msp430-uss-library\Library\src\examples\US #
#                            S_Water_Demo\IAR\LPM\Obj\eusci_b_spi.r43          #
#                            C:\Git\msp430-uss-library\Library\src\examples\US #
#                            S_Water_Demo\IAR\LPM\Obj\framctl.r43              #
#                            C:\Git\msp430-uss-library\Library\src\examples\US #
#                            S_Water_Demo\IAR\LPM\Obj\framctl_a.r43            #
#                            C:\Git\msp430-uss-library\Library\src\examples\US #
#                            S_Water_Demo\IAR\LPM\Obj\gpio.r43                 #
#                            C:\Git\msp430-uss-library\Library\src\examples\US #
#                            S_Water_Demo\IAR\LPM\Obj\hal_adc.r43              #
#                            C:\Git\msp430-uss-library\Library\src\examples\US #
#                            S_Water_Demo\IAR\LPM\Obj\hal_lcd.r43              #
#                            C:\Git\msp430-uss-library\Library\src\examples\US #
#                            S_Water_Demo\IAR\LPM\Obj\hal_system.r43           #
#                            C:\Git\msp430-uss-library\Library\src\examples\US #
#                            S_Water_Demo\IAR\LPM\Obj\hal_uart.r43             #
#                            C:\Git\msp430-uss-library\Library\src\examples\US #
#                            S_Water_Demo\IAR\LPM\Obj\hmi.r43                  #
#                            C:\Git\msp430-uss-library\Library\src\examples\US #
#                            S_Water_Demo\IAR\LPM\Obj\hspll.r43                #
#                            C:\Git\msp430-uss-library\Library\src\examples\US #
#                            S_Water_Demo\IAR\LPM\Obj\i2cslave.r43             #
#                            C:\Git\msp430-uss-library\Library\src\lib\IQMathL #
#                            ibrary\libraries\IAR\MPY32\5xx_6xx\IQmathLib_IAR_ #
#                            MPY32_5xx_6xx_CPUX_large_code_large_data.lib      #
#                            C:\Git\msp430-uss-library\Library\src\examples\US #
#                            S_Water_Demo\IAR\LPM\Obj\lcd_c.r43                #
#                            C:\Git\msp430-uss-library\Library\src\examples\US #
#                            S_Water_Demo\IAR\LPM\Obj\lcd_statemachine.r43     #
#                            C:\Git\msp430-uss-library\Library\src\examples\US #
#                            S_Water_Demo\IAR\LPM\Obj\listener.r43             #
#                            C:\Git\msp430-uss-library\Library\src\examples\US #
#                            S_Water_Demo\IAR\LPM\Obj\main.r43                 #
#                            C:\Git\msp430-uss-library\Library\src\examples\US #
#                            S_Water_Demo\IAR\LPM\Obj\mathematics.r43          #
#                            C:\Git\msp430-uss-library\Library\src\examples\US #
#                            S_Water_Demo\IAR\LPM\Obj\mpu.r43                  #
#                            C:\Git\msp430-uss-library\Library\src\examples\US #
#                            S_Water_Demo\IAR\LPM\Obj\mpy32.r43                #
#                            C:\Git\msp430-uss-library\Library\src\examples\US #
#                            S_Water_Demo\IAR\LPM\Obj\mtif.r43                 #
#                            C:\Git\msp430-uss-library\Library\src\examples\US #
#                            S_Water_Demo\IAR\LPM\Obj\packet.r43               #
#                            C:\Git\msp430-uss-library\Library\src\examples\US #
#                            S_Water_Demo\IAR\LPM\Obj\ping_pong_buffer.r43     #
#                            C:\Git\msp430-uss-library\Library\src\examples\US #
#                            S_Water_Demo\IAR\LPM\Obj\pmm.r43                  #
#                            C:\Git\msp430-uss-library\Library\src\lib\IQMathL #
#                            ibrary\libraries\IAR\MPY32\5xx_6xx\QmathLib_IAR_M #
#                            PY32_5xx_6xx_CPUX_large_code_large_data.lib       #
#                            C:\Git\msp430-uss-library\Library\src\examples\US #
#                            S_Water_Demo\IAR\LPM\Obj\ram.r43                  #
#                            C:\Git\msp430-uss-library\Library\src\examples\US #
#                            S_Water_Demo\IAR\LPM\Obj\ref_a.r43                #
#                            C:\Git\msp430-uss-library\Library\src\examples\US #
#                            S_Water_Demo\IAR\LPM\Obj\results.r43              #
#                            C:\Git\msp430-uss-library\Library\src\examples\US #
#                            S_Water_Demo\IAR\LPM\Obj\rtc_b.r43                #
#                            C:\Git\msp430-uss-library\Library\src\examples\US #
#                            S_Water_Demo\IAR\LPM\Obj\rtc_c.r43                #
#                            C:\Git\msp430-uss-library\Library\src\examples\US #
#                            S_Water_Demo\IAR\LPM\Obj\saph.r43                 #
#                            C:\Git\msp430-uss-library\Library\src\examples\US #
#                            S_Water_Demo\IAR\LPM\Obj\sdhs.r43                 #
#                            C:\Git\msp430-uss-library\Library\src\examples\US #
#                            S_Water_Demo\IAR\LPM\Obj\sfr.r43                  #
#                            C:\Git\msp430-uss-library\Library\src\examples\US #
#                            S_Water_Demo\IAR\LPM\Obj\sysctl.r43               #
#                            C:\Git\msp430-uss-library\Library\src\examples\US #
#                            S_Water_Demo\IAR\LPM\Obj\system_pre_init.r43      #
#                            C:\Git\msp430-uss-library\Library\src\examples\US #
#                            S_Water_Demo\IAR\LPM\Obj\testing.r43              #
#                            C:\Git\msp430-uss-library\Library\src\examples\US #
#                            S_Water_Demo\IAR\LPM\Obj\timeout.r43              #
#                            C:\Git\msp430-uss-library\Library\src\examples\US #
#                            S_Water_Demo\IAR\LPM\Obj\timer_a.r43              #
#                            C:\Git\msp430-uss-library\Library\src\examples\US #
#                            S_Water_Demo\IAR\LPM\Obj\timer_b.r43              #
#                            C:\Git\msp430-uss-library\Library\src\examples\US #
#                            S_Water_Demo\IAR\LPM\Obj\tlv.r43                  #
#                            C:\Git\msp430-uss-library\Library\src\examples\US #
#                            S_Water_Demo\IAR\LPM\Obj\uart.r43                 #
#                            C:\Git\msp430-uss-library\Library\src\examples\US #
#                            S_Water_Demo\IAR\LPM\Obj\USS_App_userConfig.r43   #
#                            C:\Git\msp430-uss-library\Library\src\examples\US #
#                            S_Water_Demo\IAR\LPM\Obj\USS_Lib_HAL.r43          #
#                            C:\Git\msp430-uss-library\Library\src\lib\USS_opt #
#                            imized\Lobe\IAR\USS_SW_IAR_large_code_large_data. #
#                            lib                                               #
#                            C:\Git\msp430-uss-library\Library\src\examples\US #
#                            S_Water_Demo\IAR\LPM\Obj\USS_userConfig.r43       #
#                            C:\Git\msp430-uss-library\Library\src\examples\US #
#                            S_Water_Demo\IAR\LPM\Obj\ussDCCommandHandlers.r43 #
#                            C:\Git\msp430-uss-library\Library\src\examples\US #
#                            S_Water_Demo\IAR\LPM\Obj\USSLibGUIApp.r43         #
#                            C:\Git\msp430-uss-library\Library\src\examples\US #
#                            S_Water_Demo\IAR\LPM\Obj\ussSwLibAlgorithm.r43    #
#                            C:\Git\msp430-uss-library\Library\src\examples\US #
#                            S_Water_Demo\IAR\LPM\Obj\ussSwLibAppDebug.r43     #
#                            C:\Git\msp430-uss-library\Library\src\examples\US #
#                            S_Water_Demo\IAR\LPM\Obj\ussSwLibCalibration.r43  #
#                            C:\Git\msp430-uss-library\Library\src\examples\US #
#                            S_Water_Demo\IAR\LPM\Obj\ussSwLibCommonHSPLL.r43  #
#                            C:\Git\msp430-uss-library\Library\src\examples\US #
#                            S_Water_Demo\IAR\LPM\Obj\ussSwLibCommonInterrupts #
#                            .r43                                              #
#                            C:\Git\msp430-uss-library\Library\src\examples\US #
#                            S_Water_Demo\IAR\LPM\Obj\ussSwLibCommonSAPH.r43   #
#                            C:\Git\msp430-uss-library\Library\src\examples\US #
#                            S_Water_Demo\IAR\LPM\Obj\ussSwLibCommonSDHS.r43   #
#                            C:\Git\msp430-uss-library\Library\src\examples\US #
#                            S_Water_Demo\IAR\LPM\Obj\ussSwLibCommonTimer.r43  #
#                            C:\Git\msp430-uss-library\Library\src\examples\US #
#                            S_Water_Demo\IAR\LPM\Obj\ussSwLibCommonUSS.r43    #
#                            C:\Git\msp430-uss-library\Library\src\examples\US #
#                            S_Water_Demo\IAR\LPM\Obj\ussSwLibConfiguration.r4 #
#                            3                                                 #
#                            C:\Git\msp430-uss-library\Library\src\examples\US #
#                            S_Water_Demo\IAR\LPM\Obj\ussSwLibISR.r43          #
#                            C:\Git\msp430-uss-library\Library\src\examples\US #
#                            S_Water_Demo\IAR\LPM\Obj\ussSwLibMeasurement.r43  #
#                            C:\Git\msp430-uss-library\Library\src\examples\US #
#                            S_Water_Demo\IAR\LPM\Obj\ussSwLibTemperature.r43  #
#                            C:\Git\msp430-uss-library\Library\src\examples\US #
#                            S_Water_Demo\IAR\LPM\Obj\ussSwLibVFRCalib.r43     #
#                            C:\Git\msp430-uss-library\Library\src\examples\US #
#                            S_Water_Demo\IAR\LPM\Obj\ussSwLibVFRCalibFlow.r43 #
#                            C:\Git\msp430-uss-library\Library\src\examples\US #
#                            S_Water_Demo\IAR\LPM\Obj\ussSwLibVFRCalibFlowTemp #
#                            erature.r43                                       #
#                            C:\Git\msp430-uss-library\Library\src\examples\US #
#                            S_Water_Demo\IAR\LPM\Obj\uups.r43                 #
#                            C:\Git\msp430-uss-library\Library\src\examples\US #
#                            S_Water_Demo\IAR\LPM\Obj\wdt_a.r43                #
#                            -o                                                #
#                            C:\Git\msp430-uss-library\Library\src\examples\US #
#                            S_Water_Demo\IAR\LPM\Exe\MSP430FR6007EVM_USS_Wate #
#                            r_Demo_Devel.d43                                  #
#                            -l                                                #
#                            C:\Git\msp430-uss-library\Library\src\examples\US #
#                            S_Water_Demo\IAR\LPM\List\MSP430FR6007EVM_USS_Wat #
#                            er_Demo_Devel.map                                 #
#                            -xms                                              #
#                            "-IC:\Program Files (x86)\IAR Systems\Embedded Wo #
#                            rkbench 8.0\430\LIB\"                             #
#                            -f                                                #
#                            C:\Git\msp430-uss-library\Library\src\examples\US #
#                            S_Water_Demo\IAR\lnk430fr6047.xcl                 #
#                            (-cmsp430 -QCODE_I=CODE_ID -QTLS16_I=TLS16_ID     #
#                            -D__iar_HWMUL=4C0 -Z(DATA)TINYRAM=000A-001F       #
#                            -Z(DATA)LEARAM=2C00-3AC7                          #
#                            -Z(DATA)LEASTACK=3AC8-3BFF                        #
#                            -Z(DATA)DATA16_I,DATA16_Z,DATA16_N,TLS16_I=1C00-2 #
#                            BFF                                               #
#                            -Z(DATA)CODE_I                                    #
#                            -Z(DATA)DATA20_I,DATA20_Z,DATA20_N                #
#                            -Z(DATA)CSTACK+_STACK_SIZE#                       #
#                            -Z(CONST)DATA16_P,DATA20_P=4000-FF7F              #
#                            -Z(DATA)DATA16_HEAP+_DATA16_HEAP_SIZE             #
#                            -Z(DATA)DATA20_HEAP+_DATA20_HEAP_SIZE             #
#                            -Z(CONST)MPU_B1                                   #
#                            -Z(CONST)DATA16_C,DATA16_ID,TLS16_ID,DIFUNCT,CHEC #
#                            KSUM=4000-FF7F                                    #
#                            -Z(CONST)MPU_B2 -Z(CONST)IPE_B1=4000-FF7F         #
#                            -Z(DATA)IPEDATA16_N -Z(CODE)IPECODE16             #
#                            -Z(CONST)IPEDATA16_C,IPE_B2                       #
#                            -Z(CODE)CSTART,ISR_CODE,CODE16=4000-FF7F          #
#                            -P(CODE)CODE=4000-FF7F,10000-43FEF                #
#                            -Z(CODE)CODE_PAD                                  #
#                            -Z(CONST)DATA20_C,DATA20_ID,CODE_ID=4000-FF7F,100 #
#                            40-43FF7                                          #
#                            -Z(CONST)VERSION=43FF0-43FF7                      #
#                            -Z(CONST)LIB_VERSION=43FF8-43FFF                  #
#                            -Z(CONST)JTAGSIGNATURE=FF80-FF83                  #
#                            -Z(CONST)BSLSIGNATURE=FF84-FF87                   #
#                            -Z(CONST)IPESIGNATURE=FF88-FF8F                   #
#                            -Z(CODE)INTVEC=FF90-FFFF                          #
#                            -Z(CODE)RESET=FFFE-FFFF) -f                       #
#                            "C:\Program Files (x86)\IAR Systems\Embedded Work #
#                            bench 8.0\430\config\linker\multiplier32.xcl"     #
#                            (-e?Mul8Hw=?Mul8 -e?Mul16Hw=?Mul16                #
#                            -e?Mul16to32uHw=?Mul16to32u                       #
#                            -e?Mul16to32sHw=?Mul16to32s -e?Mul32Hw32=?Mul32   #
#                            -e?Mul64Hw32=_Mul64i                              #
#                            -e?Mul32u32uto64iHw32=_Mul32u32uto64i             #
#                            -e?Mul32fHw32=_Mul32f                             #
#                            -e_Mul64fHw32Ptr=_Mul64fPtr) -D_STACK_SIZE=200    #
#                            -rt                                               #
#                            "C:\Program Files (x86)\IAR Systems\Embedded Work #
#                            bench 8.0\430\lib\dlib\dl430xllfn.r43"            #
#                            -e_PrintfLarge=_Printf -e_ScanfLarge=_Scanf       #
#                            -D_DATA16_HEAP_SIZE=A0                            #
#                            -Omsp430_txt=C:\Git\msp430-uss-library\Library\sr #
#                            c\examples\USS_Water_Demo\IAR\LPM\Exe\MSP430FR600 #
#                            7EVM_USS_Water_Demo_Devel.txt                     #
#                            -s __program_start -D_DATA20_HEAP_SIZE=50         #
#                            "C:\Program Files (x86)\IAR Systems\Embedded Work #
#                            bench 8.0\430\lib\MathLib\MSPMATHLIB_IAR_msp430_C #
#                            PUX_large_code_large_data.lib"                    #
#                            -f                                                #
#                            "C:\Program Files (x86)\IAR Systems\Embedded Work #
#                            bench 8.0\430\config\linker\mathlib32.xcl")       #
#                            (-eacosf=acos -eacosf=acosl -easinf=asin          #
#                            -easinf=asinl -eatan2f=atan2 -eatan2f=atan2l      #
#                            -eatanf=atan -eatanf=atanl -ecosf=cos             #
#                            -ecosf=cosl -eexpf=exp -eexpf=expl -efabsf=fabs   #
#                            -efabsf=fabsl -efmodf=fmod -efmodf=fmodl          #
#                            -elogf=log -elogf=logl -esinf=sin -esinf=sinl     #
#                            -e__iar_Sin_MathLib=__iar_Sin -esqrtf=sqrt        #
#                            -esqrtf=sqrtl -etanf=tan -etanf=tanl)             #
#                                                                              #
#                           Copyright (C) 1987-2016 IAR Systems AB.            #
################################################################################





                ****************************************
                *                                      *
                *           CROSS REFERENCE            *
                *                                      *
                ****************************************

       Program entry at :           504A  Relocatable, from module : ?cstart




                ****************************************
                *                                      *
                *            RUNTIME MODEL             *
                *                                      *
                ****************************************

  __Heap_Handler             = Basic
  __SystemLibrary            = DLib
  __code_model               = large
  __core                     = 430X
  __data_model               = large
  __dlib_file_descriptor     = 0
  __dlib_full_locale_support = 0
  __double_size              = 32
  __pic                      = no
  __reg_r4                   = free
  __reg_r5                   = free
  __rt_version               = 3

                ****************************************
                *                                      *
                *    AUTOMATIC SYMBOL REDIRECTIONS     *
                *                                      *
                ****************************************

                  There are no automatic symbol redirections.



                ****************************************
                *                                      *
                *              MODULE MAP              *
                *                                      *
                ****************************************


  DEFINED ABSOLUTE ENTRIES
    *************************************************************************

  DEFINED ABSOLUTE ENTRIES
  PROGRAM MODULE, NAME : ?ABS_ENTRY_MOD

Absolute parts
           ENTRY                   ADDRESS         REF BY
           =====                   =======         ======
           _DATA20_HEAP_SIZE       0050 
           _DATA16_HEAP_SIZE       00A0 
           _STACK_SIZE             0200 
           __iar_HWMUL             04C0            ?Mul16to32sHw (?Mul16to32sHw)
                                                   ?Mul32Hw32 (?Mul32Hw32)
                                                   ?Mul32fHw32 (?Mul32fHw32)
                                                   ?Mul32u32uto64iHw32 (?Mul32u32uto64iHw32)
                                                   Segment part 1 (?Mul8Hw)
                                                   msp430_calc_sqrt (msp430_common)
    *************************************************************************

  FILE NAME : C:\Git\msp430-uss-library\Library\src\examples\USS_Water_Demo\IAR\LPM\Obj\adc12_b.r43
  PROGRAM MODULE, NAME : adc12_b

  SEGMENTS IN THE MODULE
  ======================
<CODE> 1 (was CODE)
  Relative segment, address: B428 - B49F (0x78 bytes), align: 1
  Segment part 2.
           ENTRY                   ADDRESS         REF BY
           =====                   =======         ======
           ADC12_B_init            B428            hal_adc_init (hal_adc)
    -------------------------------------------------------------------------
<CODE> 1 (was CODE)
  Relative segment, address: D59A - D5A3 (0xa bytes), align: 1
  Segment part 3.             Intra module refs:   ADC12_B_init
           LOCAL                   ADDRESS         
           =====                   =======         
           ?Subroutine1            D59A 
    -------------------------------------------------------------------------
<CODE> 1 (was CODE)
  Relative segment, address: D56C - D577 (0xc bytes), align: 1
  Segment part 4.
           ENTRY                   ADDRESS         REF BY
           =====                   =======         ======
           ADC12_B_enable          D56C            ?Subroutine0 (hal_adc)
    -------------------------------------------------------------------------
<CODE> 1 (was CODE)
  Relative segment, address: D584 - D58F (0xc bytes), align: 1
  Segment part 5.
           ENTRY                   ADDRESS         REF BY
           =====                   =======         ======
           ADC12_B_disable         D584            ?Subroutine1 (hal_adc)
    -------------------------------------------------------------------------
<CODE> 1 (was CODE)
  Relative segment, address: CE3E - CE5D (0x20 bytes), align: 1
  Segment part 6.
           ENTRY                   ADDRESS         REF BY
           =====                   =======         ======
           ADC12_B_setupSamplingTimer
                                   CE3E            hal_adc_init (hal_adc)
    -------------------------------------------------------------------------
<CODE> 1 (was CODE)
  Relative segment, address: C780 - C7AD (0x2e bytes), align: 1
  Segment part 8.
           ENTRY                   ADDRESS         REF BY
           =====                   =======         ======
           ADC12_B_configureMemory
                                   C780            hal_adc_init (hal_adc)
    -------------------------------------------------------------------------
<CODE> 1 (was CODE)
  Relative segment, address: CD14 - CD35 (0x22 bytes), align: 1
  Segment part 10.
           ENTRY                   ADDRESS         REF BY
           =====                   =======         ======
           ADC12_B_enableInterrupt
                                   CD14            hal_adc_voltagesupply_readmV (hal_adc)
    -------------------------------------------------------------------------
<CODE> 1 (was CODE)
  Relative segment, address: CCD0 - CCF1 (0x22 bytes), align: 1
  Segment part 11.
           ENTRY                   ADDRESS         REF BY
           =====                   =======         ======
           ADC12_B_disableInterrupt
                                   CCD0            hal_adc_voltagesupply_readmV (hal_adc)
    -------------------------------------------------------------------------
<CODE> 1 (was CODE)
  Relative segment, address: D390 - D39F (0x10 bytes), align: 1
  Segment part 12.
           ENTRY                   ADDRESS         REF BY
           =====                   =======         ======
           ADC12_B_clearInterrupt
                                   D390            ?Subroutine4 (hal_adc)
    -------------------------------------------------------------------------
<CODE> 1 (was CODE)
  Relative segment, address: C690 - C6BF (0x30 bytes), align: 1
  Segment part 14.
           ENTRY                   ADDRESS         REF BY
           =====                   =======         ======
           ADC12_B_startConversion
                                   C690            hal_adc_voltagesupply_readmV (hal_adc)
    -------------------------------------------------------------------------
<CODE> 1 (was CODE)
  Relative segment, address: D50C - D517 (0xc bytes), align: 1
  Segment part 16.
           ENTRY                   ADDRESS         REF BY
           =====                   =======         ======
           ADC12_B_getResults      D50C            ADC12_ISR (hal_adc)

    *************************************************************************

  FILE NAME : C:\Git\msp430-uss-library\Library\src\examples\USS_Water_Demo\IAR\LPM\Obj\aes256.r43
    *************************************************************************

  FILE NAME : C:\Git\msp430-uss-library\Library\src\examples\USS_Water_Demo\IAR\LPM\Obj\benchmarkussswLib.r43
    *************************************************************************

  FILE NAME : C:\Git\msp430-uss-library\Library\src\examples\USS_Water_Demo\IAR\LPM\Obj\byte_queue.r43
  PROGRAM MODULE, NAME : byte_queue

  SEGMENTS IN THE MODULE
  ======================
<CODE> 1 (was CODE)
  Relative segment, address: CE5E - CE7D (0x20 bytes), align: 1
  Segment part 2.
           ENTRY                   ADDRESS         REF BY
           =====                   =======         ======
           ByteQueue_init          CE5E            Comm_setup (comm)
    -------------------------------------------------------------------------
<CODE> 1 (was CODE)
  Relative segment, address: BD40 - BD91 (0x52 bytes), align: 1
  Segment part 3.
           ENTRY                   ADDRESS         REF BY
           =====                   =======         ======
           ByteQueue_push          BD40            Comm_i2cReceiveHandler (comm)
               calls direct
    -------------------------------------------------------------------------
<CODE> 1 (was CODE)
  Relative segment, address: C22A - C269 (0x40 bytes), align: 1
  Segment part 4.
           ENTRY                   ADDRESS         REF BY
           =====                   =======         ======
           ByteQueue_pull          C22A            Packet_extractFromStream (packet)
               calls direct
    -------------------------------------------------------------------------
<CODE> 1 (was CODE)
  Relative segment, address: C9F8 - CA23 (0x2c bytes), align: 1
  Segment part 5.
           ENTRY                   ADDRESS         REF BY
           =====                   =======         ======
           ByteQueue_getLength     C9F8            Packet_extractFromStream (packet)
               calls direct
    -------------------------------------------------------------------------
<CODE> 1 (was CODE)
  Relative segment, address: CC00 - CC23 (0x24 bytes), align: 1
  Segment part 6.             Intra module refs:   ByteQueue_push
           ENTRY                   ADDRESS         REF BY
           =====                   =======         ======
           ByteQueue_isFull        CC00 
    -------------------------------------------------------------------------
<CODE> 1 (was CODE)
  Relative segment, address: D3FA - D407 (0xe bytes), align: 1
  Segment part 7.             Intra module refs:   ByteQueue_getLength
                                                   ByteQueue_pull
           ENTRY                   ADDRESS         REF BY
           =====                   =======         ======
           ByteQueue_isEmpty       D3FA 

    *************************************************************************

  FILE NAME : C:\Git\msp430-uss-library\Library\src\examples\USS_Water_Demo\IAR\LPM\Obj\checksum.r43
  PROGRAM MODULE, NAME : checksum

  SEGMENTS IN THE MODULE
  ======================
<CODE> 1 (was CODE)
  Relative segment, address: CF4E - CF69 (0x1c bytes), align: 1
  Segment part 2.             Intra module refs:   Checksum_verifyChecksum
           ENTRY                   ADDRESS         REF BY
           =====                   =======         ======
           Checksum_computeChecksum
                                   CF4E            Packet_appendChecksum (packet)
    -------------------------------------------------------------------------
<CODE> 1 (was CODE)
  Relative segment, address: D1A0 - D1B3 (0x14 bytes), align: 1
  Segment part 3.
           ENTRY                   ADDRESS         REF BY
           =====                   =======         ======
           Checksum_verifyChecksum
                                   D1A0            Packet_extractFromStream (packet)
               calls direct

    *************************************************************************

  FILE NAME : C:\Git\msp430-uss-library\Library\src\examples\USS_Water_Demo\IAR\LPM\Obj\comm.r43
  PROGRAM MODULE, NAME : comm

  SEGMENTS IN THE MODULE
  ======================
DATA20_P
  Relative segment, address: 4FAA - 4FE8 (0x3f bytes), align: 0
  Segment part 2.             Intra module refs:   Comm_listenForCmd
           ENTRY                   ADDRESS         REF BY
           =====                   =======         ======
           packet                  4FAA 
    -------------------------------------------------------------------------
DATA20_Z
  Relative segment, address: 1EA2 - 2121 (0x280 bytes), align: 0
  Segment part 3.             Intra module refs:   Comm_i2cReceiveHandler
                                                   Comm_i2cSlavePort
           ENTRY                   ADDRESS         REF BY
           =====                   =======         ======
           Comm_i2cSlaveRxBuffer   1EA2 
    -------------------------------------------------------------------------
<CODE> 1 (was CODE)
  Relative segment, address: CD7A - CD9B (0x22 bytes), align: 1
  Segment part 5.             Intra module refs:   Comm_i2cSlavePort
           ENTRY                   ADDRESS         REF BY
           =====                   =======         ======
           Comm_i2cReceiveHandler
                                   CD7A 
               calls direct
    -------------------------------------------------------------------------
DATA20_C
  Relative segment, address: D6CE - D6DD (0x10 bytes), align: 1
  Segment part 4.             Intra module refs:   Comm_setup
           ENTRY                   ADDRESS         REF BY
           =====                   =======         ======
           Comm_i2cSlavePort       D6CE 
    -------------------------------------------------------------------------
<CODE> 1 (was CODE)
  Relative segment, address: D15C - D173 (0x18 bytes), align: 1
  Segment part 6.
           ENTRY                   ADDRESS         REF BY
           =====                   =======         ======
           Comm_setup              D15C            HMI_Init (hmi)
               calls direct
    -------------------------------------------------------------------------
<CODE> 1 (was CODE)
  Relative segment, address: C866 - C893 (0x2e bytes), align: 1
  Segment part 7.             Intra module refs:   Comm_writePacket
           ENTRY                   ADDRESS         REF BY
           =====                   =======         ======
           Comm_writeBuffer        C866 
               calls direct
    -------------------------------------------------------------------------
<CODE> 1 (was CODE)
  Relative segment, address: D64C - D653 (0x8 bytes), align: 1
  Segment part 8.
           ENTRY                   ADDRESS         REF BY
           =====                   =======         ======
           Comm_writePacket        D64C            ?Subroutine2 (ussDCCommandHandlers)
                                                   ?Subroutine6 (ussDCCommandHandlers)
                                                   CommandHandler_transmitErrorPacket (ussDCCommandHandlers)
                                                   CommandHandler_transmitPacket (ussDCCommandHandlers)
                                                   CommandHandler_transmitUserErrorMsgPacket (ussDCCommandHandlers)
                                                   CommandHandler_transmitUserMessagePacket (ussDCCommandHandlers)
                                                   Handler_app_version (ussDCCommandHandlers)
                                                   Handler_calib_linear_constants_id (ussDCCommandHandlers)
                                                   Handler_f1_and_f2 (ussDCCommandHandlers)
                                                   Handler_mtr_calibration_table_id (ussDCCommandHandlers)
                                                   Handler_req_calibration_config_id (ussDCCommandHandlers)
                                                   processCommand (ussDCCommandHandlers)
               calls direct
    -------------------------------------------------------------------------
<CODE> 1 (was CODE)
  Relative segment, address: D5C2 - D5CB (0xa bytes), align: 1
  Segment part 9.             Intra module refs:   Comm_listenForCmd
           ENTRY                   ADDRESS         REF BY
           =====                   =======         ======
           Comm_checkForPacket     D5C2 
               calls direct
    -------------------------------------------------------------------------
<CODE> 1 (was CODE)
  Relative segment, address: D424 - D431 (0xe bytes), align: 1
  Segment part 10.
           ENTRY                   ADDRESS         REF BY
           =====                   =======         ======
           Comm_addCmdListener     D424            CommandHandler_registerCmdListeners (ussDCCommandHandlers)
               calls direct
    -------------------------------------------------------------------------
<CODE> 1 (was CODE)
  Relative segment, address: CB94 - CBB7 (0x24 bytes), align: 1
  Segment part 11.
           ENTRY                   ADDRESS         REF BY
           =====                   =======         ======
           Comm_listenForCmd       CB94            CommandHandler_calibUpdate (ussDCCommandHandlers)
                                                   CommandHandler_rxUpdate (ussDCCommandHandlers)
                                                   HMI_PreMeasurement_Update (hmi)
               calls direct

    *************************************************************************

  FILE NAME : C:\Git\msp430-uss-library\Library\src\examples\USS_Water_Demo\IAR\LPM\Obj\comm_config.r43
  PROGRAM MODULE, NAME : comm_config

  SEGMENTS IN THE MODULE
  ======================
DATA20_Z
  Relative segment, address: 2122 - 2441 (0x320 bytes), align: 0
  Segment part 2.
           ENTRY                   ADDRESS         REF BY
           =====                   =======         ======
           Comm_transmitBuffer     2122            Comm_writeBuffer (comm)
    -------------------------------------------------------------------------
DATA20_Z
  Relative segment, address: 2442 - 2481 (0x40 bytes), align: 0
  Segment part 3.
           ENTRY                   ADDRESS         REF BY
           =====                   =======         ======
           Comm_receiveBuffer      2442            Comm_setup (comm)
    -------------------------------------------------------------------------
DATA20_Z
  Relative segment, address: 1C08 - 1C11 (0xa bytes), align: 1
  Segment part 4.
           ENTRY                   ADDRESS         REF BY
           =====                   =======         ======
           Comm_receiveQueue       1C08            Comm_checkForPacket (comm)
                                                   Comm_i2cReceiveHandler (comm)
                                                   Comm_setup (comm)
    -------------------------------------------------------------------------
DATA20_Z
  Relative segment, address: 1C12 - 1CFB (0xea bytes), align: 1
  Segment part 5.             Intra module refs:   Segment part 7
           ENTRY                   ADDRESS         REF BY
           =====                   =======         ======
           Comm_listenerTable      1C12 
    -------------------------------------------------------------------------
DATA20_I
  Relative segment, address: 1C00 - 1C05 (0x6 bytes), align: 1
  Segment part 6.
           ENTRY                   ADDRESS         REF BY
           =====                   =======         ======
           Comm_listenerConfig     1C00            Comm_addCmdListener (comm)
                                                   Comm_listenForCmd (comm)
    -------------------------------------------------------------------------
DATA20_ID
  Relative segment, address: DE4A - DE4F (0x6 bytes), align: 1
  Segment part 7.             Intra module refs:   Comm_listenerConfig

    *************************************************************************

  FILE NAME : C:\Git\msp430-uss-library\Library\src\examples\USS_Water_Demo\IAR\LPM\Obj\comp_e.r43
    *************************************************************************

  FILE NAME : C:\Git\msp430-uss-library\Library\src\examples\USS_Water_Demo\IAR\LPM\Obj\crc.r43
    *************************************************************************

  FILE NAME : C:\Git\msp430-uss-library\Library\src\examples\USS_Water_Demo\IAR\LPM\Obj\crc32.r43
    *************************************************************************

  FILE NAME : C:\Git\msp430-uss-library\Library\src\examples\USS_Water_Demo\IAR\LPM\Obj\cs.r43
  PROGRAM MODULE, NAME : cs

  SEGMENTS IN THE MODULE
  ======================
DATA20_Z
  Relative segment, address: 1CFC - 1CFF (0x4 bytes), align: 1
  Segment part 2.             Intra module refs:   CS_setExternalClockSource
           LOCAL                   ADDRESS         
           =====                   =======         
           privateLFXTClockFrequency
                                   1CFC 
    -------------------------------------------------------------------------
DATA20_Z
  Relative segment, address: 1D00 - 1D03 (0x4 bytes), align: 1
  Segment part 3.             Intra module refs:   CS_setExternalClockSource
           LOCAL                   ADDRESS         
           =====                   =======         
           privateHFXTClockFrequency
                                   1D00 
    -------------------------------------------------------------------------
<CODE> 1 (was CODE)
  Relative segment, address: 8818 - 886F (0x58 bytes), align: 1
  Segment part 7.
           ENTRY                   ADDRESS         REF BY
           =====                   =======         ======
           CS_initClockSignal      8818            hal_system_Init (hal_system)
    -------------------------------------------------------------------------
<CODE> 1 (was CODE)
  Relative segment, address: 8870 - 8889 (0x1a bytes), align: 1
  Segment part 8.
           ENTRY                   ADDRESS         REF BY
           =====                   =======         ======
           CS_turnOnLFXT           8870            hal_system_Init (hal_system)
    -------------------------------------------------------------------------
<CODE> 1 (was CODE)
  Relative segment, address: 888A - 888D (0x4 bytes), align: 1
  Segment part 12.            Intra module refs:   CS_turnOnLFXT
           LOCAL                   ADDRESS         
           =====                   =======         
           ?Subroutine4            888A 
    -------------------------------------------------------------------------
<CODE> 1 (was CODE)
  Relative segment, address: 888E - 8893 (0x6 bytes), align: 1
  Segment part 13.            Intra module refs:   ?Subroutine4
           LOCAL                   ADDRESS         
           =====                   =======         
           ?Subroutine13           888E 
    -------------------------------------------------------------------------
<CODE> 1 (was CODE)
  Relative segment, address: 8894 - 88AB (0x18 bytes), align: 1
  Segment part 15.            Intra module refs:   CS_turnOnLFXT
           LOCAL                   ADDRESS         
           =====                   =======         
           ?Subroutine3            8894 
    -------------------------------------------------------------------------
<CODE> 1 (was CODE)
  Relative segment, address: 88AC - 88B1 (0x6 bytes), align: 1
  Segment part 22.            Intra module refs:   CS_turnOnLFXT
           LOCAL                   ADDRESS         
           =====                   =======         
           ?Subroutine0            88AC 
    -------------------------------------------------------------------------
<CODE> 1 (was CODE)
  Relative segment, address: 88B2 - 88B7 (0x6 bytes), align: 1
  Segment part 23.            Intra module refs:   ?Subroutine0
                                                   CS_initClockSignal
                                                   CS_setDCOFreq
    -------------------------------------------------------------------------
<CODE> 1 (was CODE)
  Relative segment, address: 88B8 - 88BF (0x8 bytes), align: 1
  Segment part 33.            Intra module refs:   CS_initClockSignal
                                                   CS_setDCOFreq
           LOCAL                   ADDRESS         
           =====                   =======         
           ?Subroutine7            88B8 
    -------------------------------------------------------------------------
<CODE> 1 (was CODE)
  Relative segment, address: 88C0 - 8989 (0xca bytes), align: 1
  Segment part 44.
           ENTRY                   ADDRESS         REF BY
           =====                   =======         ======
           CS_setDCOFreq           88C0            hal_system_Init (hal_system)
    -------------------------------------------------------------------------
<CODE> 1 (was CODE)
  Relative segment, address: D0CA - D0E3 (0x1a bytes), align: 1
  Segment part 6.
           ENTRY                   ADDRESS         REF BY
           =====                   =======         ======
           CS_setExternalClockSource
                                   D0CA            hal_system_Init (hal_system)

    *************************************************************************

  FILE NAME : C:\Git\msp430-uss-library\Library\src\examples\USS_Water_Demo\IAR\LPM\Obj\dma.r43
    *************************************************************************

  FILE NAME : C:\Git\msp430-uss-library\Library\src\examples\USS_Water_Demo\IAR\LPM\Obj\esi.r43
    *************************************************************************

  FILE NAME : C:\Git\msp430-uss-library\Library\src\examples\USS_Water_Demo\IAR\LPM\Obj\eusci_a_spi.r43
    *************************************************************************

  FILE NAME : C:\Git\msp430-uss-library\Library\src\examples\USS_Water_Demo\IAR\LPM\Obj\eusci_a_uart.r43
  PROGRAM MODULE, NAME : eusci_a_uart

  SEGMENTS IN THE MODULE
  ======================
<CODE> 1 (was CODE)
  Relative segment, address: CDBE - CDDD (0x20 bytes), align: 1
  Segment part 5.
           ENTRY                   ADDRESS         REF BY
           =====                   =======         ======
           EUSCI_A_UART_receiveData
                                   CDBE            hal_uart_ISR (hal_uart)

    *************************************************************************

  FILE NAME : C:\Git\msp430-uss-library\Library\src\examples\USS_Water_Demo\IAR\LPM\Obj\eusci_b_i2c.r43
  PROGRAM MODULE, NAME : eusci_b_i2c

  SEGMENTS IN THE MODULE
  ======================
<CODE> 1 (was CODE)
  Relative segment, address: CB6E - CB93 (0x26 bytes), align: 1
  Segment part 3.
           ENTRY                   ADDRESS         REF BY
           =====                   =======         ======
           EUSCI_B_I2C_initSlave   CB6E            I2CSlave_openPort (i2cslave)
    -------------------------------------------------------------------------
<CODE> 1 (was CODE)
  Relative segment, address: D67A - D67F (0x6 bytes), align: 1
  Segment part 4.
           ENTRY                   ADDRESS         REF BY
           =====                   =======         ======
           EUSCI_B_I2C_enable      D67A            I2CSlave_openPort (i2cslave)
    -------------------------------------------------------------------------
<CODE> 1 (was CODE)
  Relative segment, address: D692 - D697 (0x6 bytes), align: 1
  Segment part 5.
           ENTRY                   ADDRESS         REF BY
           =====                   =======         ======
           EUSCI_B_I2C_disable     D692            I2CSlave_closePort (i2cslave)
    -------------------------------------------------------------------------
<CODE> 1 (was CODE)
  Relative segment, address: C166 - C16B (0x6 bytes), align: 1
  Segment part 8.             Intra module refs:   EUSCI_B_I2C_enableInterrupt
           LOCAL                   ADDRESS         
           =====                   =======         
           ?Subroutine2            C166 
    -------------------------------------------------------------------------
<CODE> 1 (was CODE)
  Relative segment, address: C16C - C173 (0x8 bytes), align: 1
  Segment part 9.
           ENTRY                   ADDRESS         REF BY
           =====                   =======         ======
           EUSCI_B_I2C_getMode     C16C            I2CSlave_ISR (i2cslave)
    -------------------------------------------------------------------------
<CODE> 1 (was CODE)
  Relative segment, address: C174, align: 1
  Segment part 10.
           ENTRY                   ADDRESS         REF BY
           =====                   =======         ======
           EUSCI_B_I2C_slavePutData
                                   C174            I2CSlave_ISR (i2cslave)
    -------------------------------------------------------------------------
<CODE> 1 (was CODE)
  Relative segment, address: C174 - C179 (0x6 bytes), align: 1
  Segment part 11.            Intra module refs:   EUSCI_B_I2C_slavePutData
           LOCAL                   ADDRESS         
           =====                   =======         
           ?Subroutine0            C174 
    -------------------------------------------------------------------------
<CODE> 1 (was CODE)
  Relative segment, address: C17A - C17F (0x6 bytes), align: 1
  Segment part 12.            Intra module refs:   ?Subroutine0
    -------------------------------------------------------------------------
<CODE> 1 (was CODE)
  Relative segment, address: C180 - C181 (0x2 bytes), align: 1
  Segment part 13.
           ENTRY                   ADDRESS         REF BY
           =====                   =======         ======
           EUSCI_B_I2C_slaveGetData
                                   C180            I2CSlave_ISR (i2cslave)
                                                   I2CSlave_handleEndOfReceive (i2cslave)
    -------------------------------------------------------------------------
<CODE> 1 (was CODE)
  Relative segment, address: C182 - C189 (0x8 bytes), align: 1
  Segment part 17.
           ENTRY                   ADDRESS         REF BY
           =====                   =======         ======
           EUSCI_B_I2C_enableInterrupt
                                   C182            I2CSlave_openPort (i2cslave)
    -------------------------------------------------------------------------
<CODE> 1 (was CODE)
  Relative segment, address: C18A - C18F (0x6 bytes), align: 1
  Segment part 19.            Intra module refs:   EUSCI_B_I2C_clearInterrupt
           LOCAL                   ADDRESS         
           =====                   =======         
           ?Subroutine3            C18A 
    -------------------------------------------------------------------------
<CODE> 1 (was CODE)
  Relative segment, address: C190 - C197 (0x8 bytes), align: 1
  Segment part 20.
           ENTRY                   ADDRESS         REF BY
           =====                   =======         ======
           EUSCI_B_I2C_clearInterrupt
                                   C190            I2CSlave_handleEndOfReceive (i2cslave)
                                                   I2CSlave_openPort (i2cslave)
    -------------------------------------------------------------------------
<CODE> 1 (was CODE)
  Relative segment, address: C198 - C1A1 (0xa bytes), align: 1
  Segment part 21.
           ENTRY                   ADDRESS         REF BY
           =====                   =======         ======
           EUSCI_B_I2C_getInterruptStatus
                                   C198            I2CSlave_handleEndOfReceive (i2cslave)
    -------------------------------------------------------------------------
<CODE> 1 (was CODE)
  Relative segment, address: C1A2 - C1A9 (0x8 bytes), align: 1
  Segment part 43.            Intra module refs:   EUSCI_B_I2C_slaveGetData
           LOCAL                   ADDRESS         
           =====                   =======         
           ?Subroutine1            C1A2 

    *************************************************************************

  FILE NAME : C:\Git\msp430-uss-library\Library\src\examples\USS_Water_Demo\IAR\LPM\Obj\eusci_b_spi.r43
    *************************************************************************

  FILE NAME : C:\Git\msp430-uss-library\Library\src\examples\USS_Water_Demo\IAR\LPM\Obj\framctl.r43
    *************************************************************************

  FILE NAME : C:\Git\msp430-uss-library\Library\src\examples\USS_Water_Demo\IAR\LPM\Obj\framctl_a.r43
    *************************************************************************

  FILE NAME : C:\Git\msp430-uss-library\Library\src\examples\USS_Water_Demo\IAR\LPM\Obj\gpio.r43
  PROGRAM MODULE, NAME : gpio

  SEGMENTS IN THE MODULE
  ======================
DATA20_C
  Relative segment, address: D6DE - D6F9 (0x1c bytes), align: 1
  Segment part 2.             Intra module refs:   ?Subroutine12
                                                   ?Subroutine13
                                                   ?Subroutine7
                                                   GPIO_getInterruptStatus
           LOCAL                   ADDRESS         
           =====                   =======         
           GPIO_PORT_TO_BASE       D6DE 
    -------------------------------------------------------------------------
<CODE> 1 (was CODE)
  Relative segment, address: 86A2 - 86AB (0xa bytes), align: 1
  Segment part 3.
           ENTRY                   ADDRESS         REF BY
           =====                   =======         ======
           GPIO_setAsOutputPin     86A2            hal_adc_voltagesupply_readmV (hal_adc)
                                                   hal_system_GPIOInit (hal_system)
    -------------------------------------------------------------------------
<CODE> 1 (was CODE)
  Relative segment, address: 86AC - 86B1 (0x6 bytes), align: 1
  Segment part 4.             Intra module refs:   GPIO_setAsInputPinWithPullUpResistor
                                                   GPIO_setAsOutputPin
           LOCAL                   ADDRESS         
           =====                   =======         
           ?Subroutine1            86AC 
    -------------------------------------------------------------------------
<CODE> 1 (was CODE)
  Relative segment, address: 86B2 - 86DD (0x2c bytes), align: 1
  Segment part 5.
           ENTRY                   ADDRESS         REF BY
           =====                   =======         ======
           GPIO_setAsInputPin      86B2            hal_adc_init (hal_adc)
                                                   hal_adc_voltagesupply_readmV (hal_adc)
                                                   hal_system_GPIOInit (hal_system)
    -------------------------------------------------------------------------
<CODE> 1 (was CODE)
  Relative segment, address: 86DE - 86E9 (0xc bytes), align: 1
  Segment part 6.             Intra module refs:   ?Subroutine4
                                                   GPIO_setAsInputPin
                                                   GPIO_setAsOutputPin
           LOCAL                   ADDRESS         
           =====                   =======         
           ?Subroutine12           86DE 
    -------------------------------------------------------------------------
<CODE> 1 (was CODE)
  Relative segment, address: 86EA - 86F5 (0xc bytes), align: 1
  Segment part 7.             Intra module refs:   ?Subroutine10
                                                   ?Subroutine12
                                                   ?Subroutine7
           LOCAL                   ADDRESS         
           =====                   =======         
           ?Subroutine14           86EA 
    -------------------------------------------------------------------------
<CODE> 1 (was CODE)
  Relative segment, address: 86F6 - 871F (0x2a bytes), align: 1
  Segment part 9.             Intra module refs:   GPIO_setAsPeripheralModuleFunctionInputPin
           LOCAL                   ADDRESS         
           =====                   =======         
           ?Subroutine0            86F6 
    -------------------------------------------------------------------------
<CODE> 1 (was CODE)
  Relative segment, address: 8720 - 873F (0x20 bytes), align: 1
  Segment part 10.
           ENTRY                   ADDRESS         REF BY
           =====                   =======         ======
           GPIO_setAsPeripheralModuleFunctionInputPin
                                   8720            hal_adc_init (hal_adc)
                                                   hal_lcd_Init (hal_lcd)
                                                   hal_system_GPIOInit (hal_system)
    -------------------------------------------------------------------------
<CODE> 1 (was CODE)
  Relative segment, address: 8740 - 8751 (0x12 bytes), align: 1
  Segment part 11.            Intra module refs:   GPIO_setAsPeripheralModuleFunctionInputPin
           LOCAL                   ADDRESS         
           =====                   =======         
           ?Subroutine7            8740 
    -------------------------------------------------------------------------
<CODE> 1 (was CODE)
  Relative segment, address: 8752 - 8755 (0x4 bytes), align: 1
  Segment part 12.
           ENTRY                   ADDRESS         REF BY
           =====                   =======         ======
           GPIO_setOutputHighOnPin
                                   8752            hal_system_LEDOn (hal_system)
    -------------------------------------------------------------------------
<CODE> 1 (was CODE)
  Relative segment, address: 8756 - 875B (0x6 bytes), align: 1
  Segment part 13.            Intra module refs:   GPIO_selectInterruptEdge
                                                   GPIO_setOutputHighOnPin
           LOCAL                   ADDRESS         
           =====                   =======         
           ?Subroutine2            8756 
    -------------------------------------------------------------------------
<CODE> 1 (was CODE)
  Relative segment, address: 875C - 875F (0x4 bytes), align: 1
  Segment part 14.
           ENTRY                   ADDRESS         REF BY
           =====                   =======         ======
           GPIO_setOutputLowOnPin
                                   875C            hal_adc_voltagesupply_readmV (hal_adc)
                                                   hal_system_GPIOInit (hal_system)
                                                   hal_system_LEDOff (hal_system)
    -------------------------------------------------------------------------
<CODE> 1 (was CODE)
  Relative segment, address: 8760 - 8765 (0x6 bytes), align: 1
  Segment part 15.            Intra module refs:   GPIO_clearInterrupt
                                                   GPIO_selectInterruptEdge
                                                   GPIO_setOutputLowOnPin
           LOCAL                   ADDRESS         
           =====                   =======         
           ?Subroutine3            8760 
    -------------------------------------------------------------------------
<CODE> 1 (was CODE)
  Relative segment, address: 8766 - 876D (0x8 bytes), align: 1
  Segment part 16.            Intra module refs:   GPIO_setOutputHighOnPin
                                                   GPIO_setOutputLowOnPin
           LOCAL                   ADDRESS         
           =====                   =======         
           ?Subroutine5            8766 
    -------------------------------------------------------------------------
<CODE> 1 (was CODE)
  Relative segment, address: 876E - 8775 (0x8 bytes), align: 1
  Segment part 19.
           ENTRY                   ADDRESS         REF BY
           =====                   =======         ======
           GPIO_setAsInputPinWithPullUpResistor
                                   876E            hal_system_GPIOInit (hal_system)
    -------------------------------------------------------------------------
<CODE> 1 (was CODE)
  Relative segment, address: 8776 - 8793 (0x1e bytes), align: 1
  Segment part 20.            Intra module refs:   GPIO_setAsInputPinWithPullUpResistor
           LOCAL                   ADDRESS         
           =====                   =======         
           ?Subroutine4            8776 
    -------------------------------------------------------------------------
<CODE> 1 (was CODE)
  Relative segment, address: 8794 - 87AD (0x1a bytes), align: 1
  Segment part 21.            Intra module refs:   ?Subroutine4
                                                   GPIO_setAsOutputPin
           LOCAL                   ADDRESS         
           =====                   =======         
           ?Subroutine11           8794 
    -------------------------------------------------------------------------
<CODE> 1 (was CODE)
  Relative segment, address: 87AE - 87E3 (0x36 bytes), align: 1
  Segment part 26.
           ENTRY                   ADDRESS         REF BY
           =====                   =======         ======
           GPIO_getInterruptStatus
                                   87AE            hal_system_ButtonsCheck (hal_system)
    -------------------------------------------------------------------------
<CODE> 1 (was CODE)
  Relative segment, address: 87E4 - 87EF (0xc bytes), align: 1
  Segment part 27.
           ENTRY                   ADDRESS         REF BY
           =====                   =======         ======
           GPIO_clearInterrupt     87E4            hal_system_ButtonsClearAll (hal_system)
                                                   hal_system_ButtonsClearInt (hal_system)
    -------------------------------------------------------------------------
<CODE> 1 (was CODE)
  Relative segment, address: 87F0 - 87FB (0xc bytes), align: 1
  Segment part 28.            Intra module refs:   ?Subroutine5
                                                   GPIO_clearInterrupt
           LOCAL                   ADDRESS         
           =====                   =======         
           ?Subroutine10           87F0 
    -------------------------------------------------------------------------
<CODE> 1 (was CODE)
  Relative segment, address: 87FC - 8817 (0x1c bytes), align: 1
  Segment part 29.
           ENTRY                   ADDRESS         REF BY
           =====                   =======         ======
           GPIO_selectInterruptEdge
                                   87FC            hal_system_ButtonsInit (hal_system)
    -------------------------------------------------------------------------
<CODE> 1 (was CODE)
  Relative segment, address: D44E - D45B (0xe bytes), align: 1
  Segment part 30.            Intra module refs:   ?Subroutine10
                                                   GPIO_selectInterruptEdge
           LOCAL                   ADDRESS         
           =====                   =======         
           ?Subroutine13           D44E 

    *************************************************************************

  FILE NAME : C:\Git\msp430-uss-library\Library\src\examples\USS_Water_Demo\IAR\LPM\Obj\hal_adc.r43
  PROGRAM MODULE, NAME : hal_adc

  SEGMENTS IN THE MODULE
  ======================
DATA16_AN
  Relative segment, address: 0818 - 0819 (0x2 bytes), align: 0
  Segment part 1. ROOT        Intra module refs:   ADC12_ISR
           ENTRY                   ADDRESS         REF BY
           =====                   =======         ======
           _A_ADC12IV_L            0818 
           LOCAL                   ADDRESS         
           =====                   =======         
           ADC12IV                 0818 
           ADC12IV_H               0819 
           ADC12IV_L               0818 
    -------------------------------------------------------------------------
DATA20_Z
  Relative segment, address: 2482 - 2482 (0x1 bytes), align: 0
  Segment part 6.             Intra module refs:   ADC12_ISR
                                                   hal_adc_init
           LOCAL                   ADDRESS         
           =====                   =======         
           temp_sensor_rdy         2482 
    -------------------------------------------------------------------------
DATA20_Z
  Relative segment, address: 2483 - 2483 (0x1 bytes), align: 0
  Segment part 7.             Intra module refs:   ADC12_ISR
                                                   hal_adc_voltagesupply_readmV
           LOCAL                   ADDRESS         
           =====                   =======         
           volt_supply_rdy         2483 
    -------------------------------------------------------------------------
DATA20_Z
  Relative segment, address: 1D04 - 1D05 (0x2 bytes), align: 1
  Segment part 8.             Intra module refs:   ADC12_ISR
           LOCAL                   ADDRESS         
           =====                   =======         
           temp_sensor_raw         1D04 
    -------------------------------------------------------------------------
DATA20_Z
  Relative segment, address: 1D06 - 1D07 (0x2 bytes), align: 1
  Segment part 9.             Intra module refs:   ADC12_ISR
                                                   hal_adc_voltagesupply_readmV
           LOCAL                   ADDRESS         
           =====                   =======         
           volt_supply_raw         1D06 
    -------------------------------------------------------------------------
DATA20_Z
  Relative segment, address: 1D08 - 1D0B (0x4 bytes), align: 1
  Segment part 10.            Intra module refs:   hal_adc_init
                                                   hal_adc_voltagesupply_readmV
           LOCAL                   ADDRESS         
           =====                   =======         
           cal_ref_ptr             1D08 
    -------------------------------------------------------------------------
DATA20_Z
  Relative segment, address: 1D0C - 1D0F (0x4 bytes), align: 1
  Segment part 11.            Intra module refs:   hal_adc_init
                                                   hal_adc_voltagesupply_readmV
           LOCAL                   ADDRESS         
           =====                   =======         
           cal_adc_ptr             1D0C 
    -------------------------------------------------------------------------
DATA20_Z
  Relative segment, address: 1D10 - 1D13 (0x4 bytes), align: 1
  Segment part 12.            Intra module refs:   hal_adc_init
           LOCAL                   ADDRESS         
           =====                   =======         
           temp_const              1D10 
    -------------------------------------------------------------------------
<CODE> 1 (was CODE)
  Relative segment, address: 9402 - 950B (0x10a bytes), align: 1
  Segment part 13.
           ENTRY                   ADDRESS         REF BY
           =====                   =======         ======
           hal_adc_init            9402            hal_system_Init (hal_system)
               calls direct
    -------------------------------------------------------------------------
<CODE> 1 (was CODE)
  Relative segment, address: D310 - D31F (0x10 bytes), align: 1
  Segment part 14.            Intra module refs:   hal_adc_init
           LOCAL                   ADDRESS         
           =====                   =======         
           ?Subroutine3            D310 
    -------------------------------------------------------------------------
<CODE> 1 (was CODE)
  Relative segment, address: D226 - D237 (0x12 bytes), align: 1
  Segment part 15.            Intra module refs:   hal_adc_init
           LOCAL                   ADDRESS         
           =====                   =======         
           ?Subroutine2            D226 
    -------------------------------------------------------------------------
<CODE> 1 (was CODE)
  Relative segment, address: D4CC - D4D9 (0xe bytes), align: 1
  Segment part 18.            Intra module refs:   hal_adc_voltagesupply_readmV
           LOCAL                   ADDRESS         
           =====                   =======         
           ?Subroutine4            D4CC 
    -------------------------------------------------------------------------
<CODE> 1 (was CODE)
  Relative segment, address: D1B4 - D1C7 (0x14 bytes), align: 1
  Segment part 19.            Intra module refs:   hal_adc_voltagesupply_readmV
           LOCAL                   ADDRESS         
           =====                   =======         
           ?Subroutine1            D1B4 
    -------------------------------------------------------------------------
<CODE> 1 (was CODE)
  Relative segment, address: CBDC - CBFF (0x24 bytes), align: 1
  Segment part 20.            Intra module refs:   hal_adc_voltagesupply_readmV
           LOCAL                   ADDRESS         
           =====                   =======         
           ?Subroutine0            CBDC 
    -------------------------------------------------------------------------
<CODE> 1 (was CODE)
  Relative segment, address: A270 - A32D (0xbe bytes), align: 1
  Segment part 17.
           ENTRY                   ADDRESS         REF BY
           =====                   =======         ======
           hal_adc_voltagesupply_readmV
                                   A270            results_Update (results)
               calls direct
    -------------------------------------------------------------------------
ISR_CODE
  Relative segment, address: 5082 - 5111 (0x90 bytes), align: 1
  Segment part 21.            Intra module refs:   ADC12_ISR::??INTVEC 92
           ENTRY                   ADDRESS         REF BY
           =====                   =======         ======
           ADC12_ISR               5082 
               interrupt function
               calls direct
    -------------------------------------------------------------------------
INTVEC
  Common segment, address: FF90 - FFED (0x5e bytes), align: 1
  Segment part 2. ROOT 
           ENTRY                   ADDRESS         REF BY
           =====                   =======         ======
           ADC12_ISR::??INTVEC 92
                                   FFEC 

    *************************************************************************

  FILE NAME : C:\Git\msp430-uss-library\Library\src\examples\USS_Water_Demo\IAR\LPM\Obj\hal_lcd.r43
  PROGRAM MODULE, NAME : hal_lcd

  SEGMENTS IN THE MODULE
  ======================
DATA20_Z
  Relative segment, address: 2484 - 24A1 (0x1e bytes), align: 0
  Segment part 4.             Intra module refs:   hal_lcd_clearSymbol
                                                   hal_lcd_setSymbol
                                                   hal_lcd_showBattery
                                                   hal_lcd_showCharwPoint
                                                   hal_lcd_turnoffLCD
                                                   hal_lcd_updatememory
           LOCAL                   ADDRESS         
           =====                   =======         
           LCDMemMap               2484 
    -------------------------------------------------------------------------
DATA20_C
  Relative segment, address: DCCC - DCD1 (0x6 bytes), align: 0
  Segment part 3.             Intra module refs:   hal_lcd_displayScrollText
    -------------------------------------------------------------------------
DATA20_C
  Relative segment, address: DCD2 - DCE5 (0x14 bytes), align: 0
  Segment part 5.             Intra module refs:   hal_lcd_showCharwPoint
           ENTRY                   ADDRESS         REF BY
           =====                   =======         ======
           digitTable              DCD2 
    -------------------------------------------------------------------------
DATA20_C
  Relative segment, address: DCE6 - DD19 (0x34 bytes), align: 0
  Segment part 6.             Intra module refs:   hal_lcd_showCharwPoint
           ENTRY                   ADDRESS         REF BY
           =====                   =======         ======
           alphabetBigTable        DCE6 
    -------------------------------------------------------------------------
DATA20_C
  Relative segment, address: DD1A - DD3F (0x26 bytes), align: 0
  Segment part 7.             Intra module refs:   ?Subroutine1
                                                   hal_lcd_clearSymbol
                                                   hal_lcd_setSymbol
           ENTRY                   ADDRESS         REF BY
           =====                   =======         ======
           symbolTable             DD1A 
    -------------------------------------------------------------------------
<CODE> 1 (was CODE)
  Relative segment, address: AC7A - AD09 (0x90 bytes), align: 1
  Segment part 8.
           ENTRY                   ADDRESS         REF BY
           =====                   =======         ======
           hal_lcd_Init            AC7A            hal_system_Init (hal_system)
               calls direct
    -------------------------------------------------------------------------
<CODE> 1 (was CODE)
  Relative segment, address: CDDE - CDFD (0x20 bytes), align: 1
  Segment part 9.
           ENTRY                   ADDRESS         REF BY
           =====                   =======         ======
           hal_lcd_turnoffLCD      CDDE            hal_system_Init (hal_system)
                                                   lcd_statemachine_sleepLCD (lcd_statemachine)
               calls direct
    -------------------------------------------------------------------------
<CODE> 1 (was CODE)
  Relative segment, address: D65C - D663 (0x8 bytes), align: 1
  Segment part 10.
           ENTRY                   ADDRESS         REF BY
           =====                   =======         ======
           hal_lcd_turnonLCD       D65C            lcd_statemachine_stateUpdate (lcd_statemachine)
               calls direct
    -------------------------------------------------------------------------
<CODE> 1 (was CODE)
  Relative segment, address: D624 - D62B (0x8 bytes), align: 1
  Segment part 11.
           ENTRY                   ADDRESS         REF BY
           =====                   =======         ======
           hal_lcd_clearLCD        D624            lcd_statemachine_stateAction (lcd_statemachine)
               calls direct
    -------------------------------------------------------------------------
<CODE> 1 (was CODE)
  Relative segment, address: D680 - D685 (0x6 bytes), align: 1
  Segment part 14.            Intra module refs:   hal_lcd_displayScrollText
           ENTRY                   ADDRESS         REF BY
           =====                   =======         ======
           hal_lcd_showChar        D680 
               calls direct
    -------------------------------------------------------------------------
<CODE> 1 (was CODE)
  Relative segment, address: A562 - A617 (0xb6 bytes), align: 1
  Segment part 13.            Intra module refs:   hal_lcd_showChar
           ENTRY                   ADDRESS         REF BY
           =====                   =======         ======
           hal_lcd_showCharwPoint
                                   A562            lcd_statemachine_writeLCD (lcd_statemachine)
               calls direct
    -------------------------------------------------------------------------
<CODE> 1 (was CODE)
  Relative segment, address: 9E8A - 9F57 (0xce bytes), align: 1
  Segment part 15.
           ENTRY                   ADDRESS         REF BY
           =====                   =======         ======
           hal_lcd_displayScrollText
                                   9E8A            Segment part 36 (lcd_statemachine)
                                                   lcd_statemachine_displayScrollStatistics (lcd_statemachine)
               calls direct
    -------------------------------------------------------------------------
<CODE> 1 (was CODE)
  Relative segment, address: CD58 - CD63 (0xc bytes), align: 1
  Segment part 16.            Intra module refs:   hal_lcd_showBattery
           ENTRY                   ADDRESS         REF BY
           =====                   =======         ======
           hal_lcd_setSymbol       CD58            lcd_statemachine_writeLCD (lcd_statemachine)
               calls direct
    -------------------------------------------------------------------------
<CODE> 1 (was CODE)
  Relative segment, address: CD64 - CD69 (0x6 bytes), align: 1
  Segment part 17.            Intra module refs:   hal_lcd_clearSymbol
                                                   hal_lcd_setSymbol
           LOCAL                   ADDRESS         
           =====                   =======         
           ?Subroutine0            CD64 
    -------------------------------------------------------------------------
<CODE> 1 (was CODE)
  Relative segment, address: CD6A - CD79 (0x10 bytes), align: 1
  Segment part 18.
           ENTRY                   ADDRESS         REF BY
           =====                   =======         ======
           hal_lcd_clearSymbol     CD6A            lcd_statemachine_clearWriteData (lcd_statemachine)
                                                   lcd_statemachine_writeLCD (lcd_statemachine)
               calls direct
    -------------------------------------------------------------------------
<CODE> 1 (was CODE)
  Relative segment, address: D380 - D38F (0x10 bytes), align: 1
  Segment part 19.            Intra module refs:   hal_lcd_clearSymbol
                                                   hal_lcd_setSymbol
           LOCAL                   ADDRESS         
           =====                   =======         
           ?Subroutine1            D380 
    -------------------------------------------------------------------------
<CODE> 1 (was CODE)
  Relative segment, address: B5F6 - B661 (0x6c bytes), align: 1
  Segment part 20.
           ENTRY                   ADDRESS         REF BY
           =====                   =======         ======
           hal_lcd_showBattery     B5F6            lcd_statemachine_displayBatteryVoltage (lcd_statemachine)
                                                   lcd_statemachine_stateAction (lcd_statemachine)
               calls direct
    -------------------------------------------------------------------------
<CODE> 1 (was CODE)
  Relative segment, address: CA50 - CA79 (0x2a bytes), align: 1
  Segment part 12.            Intra module refs:   ?Subroutine0
                                                   hal_lcd_showCharwPoint
           LOCAL                   ADDRESS         
           =====                   =======         
           hal_lcd_updatememory    CA50 
               calls direct

    *************************************************************************

  FILE NAME : C:\Git\msp430-uss-library\Library\src\examples\USS_Water_Demo\IAR\LPM\Obj\hal_system.r43
  PROGRAM MODULE, NAME : hal_system

  SEGMENTS IN THE MODULE
  ======================
DATA16_AN
  Relative segment, address: 019E - 019F (0x2 bytes), align: 0
  Segment part 1. ROOT        Intra module refs:   hal_system_GetResetSource
           ENTRY                   ADDRESS         REF BY
           =====                   =======         ======
           _A_SYSRSTIV_L           019E 
           LOCAL                   ADDRESS         
           =====                   =======         
           SYSRSTIV                019E 
           SYSRSTIV_H              019F 
           SYSRSTIV_L              019E 
    -------------------------------------------------------------------------
<CODE> 1 (was CODE)
  Relative segment, address: B6CE - B739 (0x6c bytes), align: 1
  Segment part 11.
           ENTRY                   ADDRESS         REF BY
           =====                   =======         ======
           hal_system_Init         B6CE            main (main)
               calls direct
    -------------------------------------------------------------------------
<CODE> 1 (was CODE)
  Relative segment, address: C7DC - C809 (0x2e bytes), align: 1
  Segment part 3.             Intra module refs:   hal_system_Init
           ENTRY                   ADDRESS         REF BY
           =====                   =======         ======
           hal_system_LEDOff       C7DC            HMI_PostAlgorithm_Update (hmi)
                                                   HMI_PreMeasurement_Update (hmi)
               calls direct
    -------------------------------------------------------------------------
<CODE> 1 (was CODE)
  Relative segment, address: C80A - C837 (0x2e bytes), align: 1
  Segment part 12.
           ENTRY                   ADDRESS         REF BY
           =====                   =======         ======
           hal_system_LEDOn        C80A            HMI_PostAlgorithm_Update (hmi)
                                                   HMI_PreMeasurement_Update (hmi)
                                                   HMI_reportError_sendErrorMessage (hmi)
               calls direct
    -------------------------------------------------------------------------
<CODE> 1 (was CODE)
  Relative segment, address: C3DA - C413 (0x3a bytes), align: 1
  Segment part 5.             Intra module refs:   hal_system_Init
           ENTRY                   ADDRESS         REF BY
           =====                   =======         ======
           hal_system_ButtonsInit
                                   C3DA 
               calls direct
    -------------------------------------------------------------------------
<CODE> 1 (was CODE)
  Relative segment, address: C948 - C973 (0x2c bytes), align: 1
  Segment part 4.             Intra module refs:   hal_system_ButtonsInit
           ENTRY                   ADDRESS         REF BY
           =====                   =======         ======
           hal_system_ButtonsClearAll
                                   C948            lcd_statemachine_stateUpdate (lcd_statemachine)
               calls direct
    -------------------------------------------------------------------------
<CODE> 1 (was CODE)
  Relative segment, address: D486 - D48D (0x8 bytes), align: 1
  Segment part 8.             Intra module refs:   hal_system_GPIOInit
           LOCAL                   ADDRESS         
           =====                   =======         
           ?Subroutine1            D486 
    -------------------------------------------------------------------------
<CODE> 1 (was CODE)
  Relative segment, address: D48E - D493 (0x6 bytes), align: 1
  Segment part 9.             Intra module refs:   ?Subroutine1
                                                   hal_system_ButtonsClearAll
           LOCAL                   ADDRESS         
           =====                   =======         
           ?Subroutine4            D48E 
    -------------------------------------------------------------------------
<CODE> 1 (was CODE)
  Relative segment, address: BFF8 - BFFF (0x8 bytes), align: 1
  Segment part 14.
           ENTRY                   ADDRESS         REF BY
           =====                   =======         ======
           hal_system_ButtonsClearInt
                                   BFF8            HMI_PreMeasurement_Update (hmi)
               calls direct
    -------------------------------------------------------------------------
<CODE> 1 (was CODE)
  Relative segment, address: C000 - C03B (0x3c bytes), align: 1
  Segment part 15.            Intra module refs:   hal_system_ButtonsClearInt
           LOCAL                   ADDRESS         
           =====                   =======         
           ?Subroutine0            C000 
    -------------------------------------------------------------------------
<CODE> 1 (was CODE)
  Relative segment, address: C03C - C041 (0x6 bytes), align: 1
  Segment part 20.            Intra module refs:   ?Subroutine0
                                                   ?Subroutine3
           LOCAL                   ADDRESS         
           =====                   =======         
           ?Subroutine5            C03C 
    -------------------------------------------------------------------------
<CODE> 1 (was CODE)
  Relative segment, address: C042 - C08B (0x4a bytes), align: 1
  Segment part 18.
           ENTRY                   ADDRESS         REF BY
           =====                   =======         ======
           hal_system_ButtonsCheck
                                   C042            HMI_PreMeasurement_Update (hmi)
                                                   lcd_statemachine_stateUpdate (lcd_statemachine)
               calls direct
    -------------------------------------------------------------------------
<CODE> 1 (was CODE)
  Relative segment, address: D63C - D643 (0x8 bytes), align: 1
  Segment part 19.            Intra module refs:   hal_system_ButtonsCheck
           LOCAL                   ADDRESS         
           =====                   =======         
           ?Subroutine3            D63C 
    -------------------------------------------------------------------------
<CODE> 1 (was CODE)
  Relative segment, address: D18A - D19F (0x16 bytes), align: 1
  Segment part 10.            Intra module refs:   hal_system_Init
           ENTRY                   ADDRESS         REF BY
           =====                   =======         ======
           hal_system_WatchdogInit
                                   D18A 
               calls direct
    -------------------------------------------------------------------------
<CODE> 1 (was CODE)
  Relative segment, address: D61C - D623 (0x8 bytes), align: 1
  Segment part 21.
           ENTRY                   ADDRESS         REF BY
           =====                   =======         ======
           hal_system_WatchdogFeed
                                   D61C            Segment part 36 (lcd_statemachine)
                                                   USSLibGUIApp_Engine (USSLibGUIApp)
                                                   hal_lcd_displayScrollText (hal_lcd)
                                                   lcd_statemachine_displayScrollStatistics (lcd_statemachine)
               calls direct
    -------------------------------------------------------------------------
<CODE> 1 (was CODE)
  Relative segment, address: D26E - D27F (0x12 bytes), align: 1
  Segment part 22.
           ENTRY                   ADDRESS         REF BY
           =====                   =======         ======
           hal_system_GetResetSource
                                   D26E            main (main)
    -------------------------------------------------------------------------
<CODE> 1 (was CODE)
  Relative segment, address: B0C8 - B145 (0x7e bytes), align: 1
  Segment part 6.             Intra module refs:   hal_system_Init
           LOCAL                   ADDRESS         
           =====                   =======         
           hal_system_GPIOInit     B0C8 
               calls direct
    -------------------------------------------------------------------------
<CODE> 1 (was CODE)
  Relative segment, address: C4F2 - C527 (0x36 bytes), align: 1
  Segment part 7.             Intra module refs:   hal_system_GPIOInit
           LOCAL                   ADDRESS         
           =====                   =======         
           ?Subroutine2            C4F2 

    *************************************************************************

  FILE NAME : C:\Git\msp430-uss-library\Library\src\examples\USS_Water_Demo\IAR\LPM\Obj\hal_uart.r43
  PROGRAM MODULE, NAME : hal_uart

  SEGMENTS IN THE MODULE
  ======================
DATA16_AN
  Relative segment, address: 05FE - 05FF (0x2 bytes), align: 0
  Segment part 1. ROOT        Intra module refs:   hal_uart_ISR
           ENTRY                   ADDRESS         REF BY
           =====                   =======         ======
           _A_UCA1IV_L             05FE 
           LOCAL                   ADDRESS         
           =====                   =======         
           UCA1IV                  05FE 
           UCA1IV_H                05FF 
           UCA1IV_L                05FE 
    -------------------------------------------------------------------------
DATA20_Z
  Relative segment, address: 24A2 - 24A2 (0x1 bytes), align: 0
  Segment part 5.             Intra module refs:   hal_uart_ISR
           LOCAL                   ADDRESS         
           =====                   =======         
           guRxData                24A2 
    -------------------------------------------------------------------------
ISR_CODE
  Relative segment, address: 5112 - 5133 (0x22 bytes), align: 1
  Segment part 12.            Intra module refs:   hal_uart_ISR::??INTVEC 86
           ENTRY                   ADDRESS         REF BY
           =====                   =======         ======
           hal_uart_ISR            5112 
               interrupt function
               calls direct
    -------------------------------------------------------------------------
INTVEC
  Common segment, address: FF90 - FFE7 (0x58 bytes), align: 1
  Segment part 2. ROOT 
           ENTRY                   ADDRESS         REF BY
           =====                   =======         ======
           hal_uart_ISR::??INTVEC 86
                                   FFE6 

    *************************************************************************

  FILE NAME : C:\Git\msp430-uss-library\Library\src\examples\USS_Water_Demo\IAR\LPM\Obj\hmi.r43
  PROGRAM MODULE, NAME : hmi

  SEGMENTS IN THE MODULE
  ======================
DATA20_P
  Relative segment, address: 4000 - 4059 (0x5a bytes), align: 1
  Segment part 2.             Intra module refs:   ?Subroutine7
                                                   HMI_GetStatus
                                                   HMI_Init
                                                   HMI_PostAlgorithm_Update
                                                   HMI_PostMeasurement_Update
                                                   HMI_PreMeasurement_Update
                                                   HMI_isLPMEnabled
                                                   HMI_reportError_sendErrorMessage
                                                   HMI_updateUSSParameters
           ENTRY                   ADDRESS         REF BY
           =====                   =======         ======
           gHMI                    4000 
    -------------------------------------------------------------------------
DATA20_Z
  Relative segment, address: 1D14 - 1D17 (0x4 bytes), align: 1
  Segment part 3.             Intra module refs:   HMI_Init
                                                   HMI_PostAlgorithm_Update
                                                   HMI_PostMeasurement_Update
                                                   HMI_PreMeasurement_Update
                                                   HMI_guiInputValidation
                                                   HMI_updateUSSParameters
                                                   HMI_update_USSalgorithmsConfig
                                                   HMI_update_USScaptureConfig
                                                   HMI_update_USSmeasurementConfig
                                                   HMI_update_USSpllConfiguration
                                                   timeToPLLCycles
           ENTRY                   ADDRESS         REF BY
           =====                   =======         ======
           DC_User_Params          1D14 
    -------------------------------------------------------------------------
DATA20_P
  Relative segment, address: 4FE9 - 5027 (0x3f bytes), align: 0
  Segment part 5.             Intra module refs:   HMI_PostAlgorithm_Update
                                                   HMI_PostMeasurement_Update
                                                   HMI_PreMeasurement_Update
                                                   HMI_reportError_sendErrorMessage
                                                   HMI_updateUSSParameters
           ENTRY                   ADDRESS         REF BY
           =====                   =======         ======
           gstxPacket              4FE9 
    -------------------------------------------------------------------------
<CODE> 1 (was CODE)
  Relative segment, address: C594 - C5C7 (0x34 bytes), align: 1
  Segment part 6.
           ENTRY                   ADDRESS         REF BY
           =====                   =======         ======
           HMI_Init                C594            main (main)
               calls direct
    -------------------------------------------------------------------------
<CODE> 1 (was CODE)
  Relative segment, address: A618 - A6C9 (0xb2 bytes), align: 1
  Segment part 16.            Intra module refs:   HMI_PreMeasurement_Update
           ENTRY                   ADDRESS         REF BY
           =====                   =======         ======
           HMI_updateUSSParameters
                                   A618 
               calls direct
    -------------------------------------------------------------------------
<CODE> 1 (was CODE)
  Relative segment, address: D6AA - D6AF (0x6 bytes), align: 1
  Segment part 17.            Intra module refs:   HMI_updateUSSParameters
                                                   HMI_update_USScaptureConfig
                                                   timeToPLLCycles
           LOCAL                   ADDRESS         
           =====                   =======         
           ?Subroutine4            D6AA 
    -------------------------------------------------------------------------
<CODE> 1 (was CODE)
  Relative segment, address: D340 - D34F (0x10 bytes), align: 1
  Segment part 18.            Intra module refs:   HMI_updateUSSParameters
                                                   HMI_update_USScaptureConfig
           LOCAL                   ADDRESS         
           =====                   =======         
           ?Subroutine1            D340 
    -------------------------------------------------------------------------
<CODE> 1 (was CODE)
  Relative segment, address: A3EA - A4A5 (0xbc bytes), align: 1
  Segment part 19.            Intra module refs:   HMI_PreMeasurement_Update
           ENTRY                   ADDRESS         REF BY
           =====                   =======         ======
           HMI_reportError_sendErrorMessage
                                   A3EA            USSLibGUIApp_send_error (USSLibGUIApp)
               calls direct
    -------------------------------------------------------------------------
<CODE> 1 (was CODE)
  Relative segment, address: D548 - D553 (0xc bytes), align: 1
  Segment part 20.            Intra module refs:   HMI_reportError_sendErrorMessage
           LOCAL                   ADDRESS         
           =====                   =======         
           ?Subroutine7            D548 
    -------------------------------------------------------------------------
<CODE> 1 (was CODE)
  Relative segment, address: AD98 - AE25 (0x8e bytes), align: 1
  Segment part 24.
           ENTRY                   ADDRESS         REF BY
           =====                   =======         ======
           HMI_PreMeasurement_Update
                                   AD98            USSLibGUIApp_Engine (USSLibGUIApp)
               calls direct
    -------------------------------------------------------------------------
<CODE> 1 (was CODE)
  Relative segment, address: CA24 - CA4F (0x2c bytes), align: 1
  Segment part 25.
           ENTRY                   ADDRESS         REF BY
           =====                   =======         ======
           HMI_PostMeasurement_Update
                                   CA24            USSLibGUIApp_Engine (USSLibGUIApp)
               calls direct
    -------------------------------------------------------------------------
<CODE> 1 (was CODE)
  Relative segment, address: 92F2 - 9401 (0x110 bytes), align: 1
  Segment part 26.
           ENTRY                   ADDRESS         REF BY
           =====                   =======         ======
           HMI_PostAlgorithm_Update
                                   92F2            USSLibGUIApp_Engine (USSLibGUIApp)
               calls direct
    -------------------------------------------------------------------------
<CODE> 1 (was CODE)
  Relative segment, address: D644 - D64B (0x8 bytes), align: 1
  Segment part 27.
           ENTRY                   ADDRESS         REF BY
           =====                   =======         ======
           HMI_isLPMEnabled        D644            USSLibGUIApp_Engine (USSLibGUIApp)
    -------------------------------------------------------------------------
<CODE> 1 (was CODE)
  Relative segment, address: D654 - D65B (0x8 bytes), align: 1
  Segment part 28.
           ENTRY                   ADDRESS         REF BY
           =====                   =======         ======
           HMI_GetStatus           D654            USSLibGUIApp_Engine (USSLibGUIApp)
    -------------------------------------------------------------------------
<CODE> 1 (was CODE)
  Relative segment, address: BB40 - BB97 (0x58 bytes), align: 1
  Segment part 29.            Intra module refs:   HMI_update_USSmeasurementConfig
           LOCAL                   ADDRESS         
           =====                   =======         
           timeToPLLCycles         BB40 
               calls direct
    -------------------------------------------------------------------------
<CODE> 1 (was CODE)
  Relative segment, address: 77CC - 79FD (0x232 bytes), align: 1
  Segment part 21.            Intra module refs:   HMI_PreMeasurement_Update
           LOCAL                   ADDRESS         
           =====                   =======         
           HMI_guiInputValidation
                                   77CC 
               calls direct
    -------------------------------------------------------------------------
<CODE> 1 (was CODE)
  Relative segment, address: D530 - D53B (0xc bytes), align: 1
  Segment part 22.            Intra module refs:   HMI_guiInputValidation
                                                   HMI_update_USSpllConfiguration
           LOCAL                   ADDRESS         
           =====                   =======         
           ?Subroutine6            D530 
    -------------------------------------------------------------------------
<CODE> 1 (was CODE)
  Relative segment, address: D5EA - D5F3 (0xa bytes), align: 1
  Segment part 23.            Intra module refs:   HMI_guiInputValidation
                                                   HMI_update_USSpllConfiguration
           LOCAL                   ADDRESS         
           =====                   =======         
           ?Subroutine5            D5EA 
    -------------------------------------------------------------------------
<CODE> 1 (was CODE)
  Relative segment, address: 9DB8 - 9E89 (0xd2 bytes), align: 1
  Segment part 15.            Intra module refs:   HMI_updateUSSParameters
           LOCAL                   ADDRESS         
           =====                   =======         
           HMI_update_USSpllConfiguration
                                   9DB8 
               calls direct
    -------------------------------------------------------------------------
<CODE> 1 (was CODE)
  Relative segment, address: 9716 - 9815 (0x100 bytes), align: 1
  Segment part 10.            Intra module refs:   HMI_updateUSSParameters
           LOCAL                   ADDRESS         
           =====                   =======         
           HMI_update_USSmeasurementConfig
                                   9716 
               calls direct
    -------------------------------------------------------------------------
<CODE> 1 (was CODE)
  Relative segment, address: D0E4 - D0E9 (0x6 bytes), align: 1
  Segment part 11.            Intra module refs:   HMI_update_USSmeasurementConfig
           LOCAL                   ADDRESS         
           =====                   =======         
           ?Subroutine3            D0E4 
    -------------------------------------------------------------------------
<CODE> 1 (was CODE)
  Relative segment, address: D0EA - D0FB (0x12 bytes), align: 1
  Segment part 12.            Intra module refs:   ?Subroutine3
                                                   HMI_update_USSmeasurementConfig
    -------------------------------------------------------------------------
<CODE> 1 (was CODE)
  Relative segment, address: D578 - D583 (0xc bytes), align: 1
  Segment part 13.            Intra module refs:   HMI_update_USSmeasurementConfig
           LOCAL                   ADDRESS         
           =====                   =======         
           ?Subroutine0            D578 
    -------------------------------------------------------------------------
<CODE> 1 (was CODE)
  Relative segment, address: D3B0 - D3BF (0x10 bytes), align: 1
  Segment part 14.            Intra module refs:   ?Subroutine0
                                                   HMI_update_USSalgorithmsConfig
           LOCAL                   ADDRESS         
           =====                   =======         
           ?Subroutine8            D3B0 
    -------------------------------------------------------------------------
<CODE> 1 (was CODE)
  Relative segment, address: B514 - B585 (0x72 bytes), align: 1
  Segment part 9.             Intra module refs:   HMI_updateUSSParameters
           LOCAL                   ADDRESS         
           =====                   =======         
           HMI_update_USScaptureConfig
                                   B514 
               calls direct
    -------------------------------------------------------------------------
<CODE> 1 (was CODE)
  Relative segment, address: A0EE - A1AF (0xc2 bytes), align: 1
  Segment part 7.             Intra module refs:   HMI_updateUSSParameters
           LOCAL                   ADDRESS         
           =====                   =======         
           HMI_update_USSalgorithmsConfig
                                   A0EE 
               calls direct
    -------------------------------------------------------------------------
<CODE> 1 (was CODE)
  Relative segment, address: D350 - D35F (0x10 bytes), align: 1
  Segment part 8.             Intra module refs:   HMI_update_USSalgorithmsConfig
           LOCAL                   ADDRESS         
           =====                   =======         
           ?Subroutine2            D350 

    *************************************************************************

  FILE NAME : C:\Git\msp430-uss-library\Library\src\examples\USS_Water_Demo\IAR\LPM\Obj\hspll.r43
    *************************************************************************

  FILE NAME : C:\Git\msp430-uss-library\Library\src\examples\USS_Water_Demo\IAR\LPM\Obj\i2cslave.r43
  PROGRAM MODULE, NAME : i2cslave

  SEGMENTS IN THE MODULE
  ======================
DATA16_AN
  Relative segment, address: 0202 - 0203 (0x2 bytes), align: 0
  Segment part 1. ROOT        Intra module refs:   I2CSlave_openPort
           ENTRY                   ADDRESS         REF BY
           =====                   =======         ======
           _A_PAOUT_L              0202 
           LOCAL                   ADDRESS         
           =====                   =======         
           PAOUT                   0202 
           PAOUT_H                 0203 
           PAOUT_L                 0202 
    -------------------------------------------------------------------------
DATA16_AN
  Relative segment, address: 0204 - 0205 (0x2 bytes), align: 0
  Segment part 2. ROOT        Intra module refs:   I2CSlave_setRequestFlag
           ENTRY                   ADDRESS         REF BY
           =====                   =======         ======
           _A_PADIR_L              0204 
           LOCAL                   ADDRESS         
           =====                   =======         
           PADIR                   0204 
           PADIR_H                 0205 
           PADIR_L                 0204 
    -------------------------------------------------------------------------
DATA16_AN
  Relative segment, address: 066E - 066F (0x2 bytes), align: 0
  Segment part 3. ROOT        Intra module refs:   I2CSlave_ISR
           ENTRY                   ADDRESS         REF BY
           =====                   =======         ======
           _A_UCB0IV_L             066E 
           LOCAL                   ADDRESS         
           =====                   =======         
           UCB0IV                  066E 
           UCB0IV_H                066F 
           UCB0IV_L                066E 
    -------------------------------------------------------------------------
DATA20_Z
  Relative segment, address: 1D18 - 1D1B (0x4 bytes), align: 1
  Segment part 6.             Intra module refs:   I2CSlave_ISR
                                                   I2CSlave_handleEndOfReceive
                                                   I2CSlave_openPort
                                                   I2CSlave_requestTimeoutHandler
                                                   I2CSlave_transactionTimeoutHandler
           ENTRY                   ADDRESS         REF BY
           =====                   =======         ======
           g_pI2CSlavePort         1D18 
    -------------------------------------------------------------------------
DATA20_C
  Relative segment, address: D6FA - D6FF (0x6 bytes), align: 1
  Segment part 7.             Intra module refs:   I2CSlave_openPort
           ENTRY                   ADDRESS         REF BY
           =====                   =======         ======
           g_I2CSlaveConfiguration
                                   D6FA 
    -------------------------------------------------------------------------
DATA20_Z
  Relative segment, address: 1D1C - 1D1F (0x4 bytes), align: 1
  Segment part 8.             Intra module refs:   ?Subroutine0
                                                   I2CSlave_setTransmitBuffer
           ENTRY                   ADDRESS         REF BY
           =====                   =======         ======
           g_pI2CTransmitBuffer    1D1C 
    -------------------------------------------------------------------------
DATA20_Z
  Relative segment, address: 1D20 - 1D21 (0x2 bytes), align: 1
  Segment part 9.             Intra module refs:   I2CSlave_ISR
                                                   I2CSlave_setTransmitBuffer
           ENTRY                   ADDRESS         REF BY
           =====                   =======         ======
           g_ui16I2CLength         1D20 
    -------------------------------------------------------------------------
DATA20_Z
  Relative segment, address: 1D22 - 1D23 (0x2 bytes), align: 1
  Segment part 10.            Intra module refs:   I2CSlave_ISR
                                                   I2CSlave_handleEndOfReceive
           ENTRY                   ADDRESS         REF BY
           =====                   =======         ======
           g_ui16I2CIndex          1D22 
    -------------------------------------------------------------------------
DATA20_Z
  Relative segment, address: 24A3 - 24A3 (0x1 bytes), align: 0
  Segment part 11.            Intra module refs:   I2CSlave_ISR
                                                   I2CSlave_closePort
                                                   I2CSlave_openPort
                                                   I2CSlave_setTransmitBuffer
           ENTRY                   ADDRESS         REF BY
           =====                   =======         ======
           g_I2CSlaveStatus        24A3            CommandHandler_transmitPacket (ussDCCommandHandlers)
                                                   processCommand (ussDCCommandHandlers)
    -------------------------------------------------------------------------
DATA20_Z
  Relative segment, address: 24A4 - 24A4 (0x1 bytes), align: 0
  Segment part 12.            Intra module refs:   I2CSlave_ISR
                                                   I2CSlave_openPort
                                                   I2CSlave_requestTimeoutHandler
                                                   I2CSlave_setRequestFlag
                                                   I2CSlave_setTransmitBuffer
           ENTRY                   ADDRESS         REF BY
           =====                   =======         ======
           g_bI2CSlaveRequestPending
                                   24A4 
    -------------------------------------------------------------------------
<CODE> 1 (was CODE)
  Relative segment, address: D062 - D07B (0x1a bytes), align: 1
  Segment part 14.            Intra module refs:   g_I2CSlaveFunctionTimer
           LOCAL                   ADDRESS         
           =====                   =======         
           I2CSlave_requestTimeoutHandler
                                   D062 
               calls indirect
    -------------------------------------------------------------------------
<CODE> 1 (was CODE)
  Relative segment, address: CF6A - CF85 (0x1c bytes), align: 1
  Segment part 17.            Intra module refs:   g_I2CSlaveFunctionTimer
           LOCAL                   ADDRESS         
           =====                   =======         
           I2CSlave_transactionTimeoutHandler
                                   CF6A 
               calls direct and indirect
    -------------------------------------------------------------------------
DATA20_C
  Relative segment, address: D700 - D70B (0xc bytes), align: 1
  Segment part 13.            Intra module refs:   I2CSlave_openPort
           ENTRY                   ADDRESS         REF BY
           =====                   =======         ======
           g_I2CSlaveFunctionTimer
                                   D700 
    -------------------------------------------------------------------------
<CODE> 1 (was CODE)
  Relative segment, address: BBEE - BC43 (0x56 bytes), align: 1
  Segment part 16.            Intra module refs:   I2CSlave_transactionTimeoutHandler
           ENTRY                   ADDRESS         REF BY
           =====                   =======         ======
           I2CSlave_openPort       BBEE            Comm_setup (comm)
               calls direct
    -------------------------------------------------------------------------
<CODE> 1 (was CODE)
  Relative segment, address: D2C8 - D2D9 (0x12 bytes), align: 1
  Segment part 15.            Intra module refs:   I2CSlave_openPort
           ENTRY                   ADDRESS         REF BY
           =====                   =======         ======
           I2CSlave_closePort      D2C8 
               calls direct
    -------------------------------------------------------------------------
<CODE> 1 (was CODE)
  Relative segment, address: C8F0 - C91B (0x2c bytes), align: 1
  Segment part 19.
           ENTRY                   ADDRESS         REF BY
           =====                   =======         ======
           I2CSlave_setTransmitBuffer
                                   C8F0            Comm_writeBuffer (comm)
    -------------------------------------------------------------------------
<CODE> 1 (was CODE)
  Relative segment, address: C484 - C4BB (0x38 bytes), align: 1
  Segment part 20.
           ENTRY                   ADDRESS         REF BY
           =====                   =======         ======
           I2CSlave_setRequestFlag
                                   C484            Comm_writeBuffer (comm)
               calls direct
    -------------------------------------------------------------------------
<CODE> 1 (was CODE)
  Relative segment, address: B8C8 - B923 (0x5c bytes), align: 1
  Segment part 21.            Intra module refs:   I2CSlave_ISR
           LOCAL                   ADDRESS         
           =====                   =======         
           I2CSlave_handleEndOfReceive
                                   B8C8 
               calls direct and indirect
    -------------------------------------------------------------------------
ISR_CODE
  Relative segment, address: 5134 - 524F (0x11c bytes), align: 1
  Segment part 22.            Intra module refs:   I2CSlave_ISR::??INTVEC 94
           ENTRY                   ADDRESS         REF BY
           =====                   =======         ======
           I2CSlave_ISR            5134 
               interrupt function
               calls direct and indirect
    -------------------------------------------------------------------------
ISR_CODE
  Relative segment, address: 5250 - 5263 (0x14 bytes), align: 1
  Segment part 23.            Intra module refs:   I2CSlave_ISR
           LOCAL                   ADDRESS         
           =====                   =======         
           ?Subroutine0            5250 
    -------------------------------------------------------------------------
INTVEC
  Common segment, address: FF90 - FFEF (0x60 bytes), align: 1
  Segment part 4. ROOT 
           ENTRY                   ADDRESS         REF BY
           =====                   =======         ======
           I2CSlave_ISR::??INTVEC 94
                                   FFEE 

    *************************************************************************

  FILE NAME : C:\Git\msp430-uss-library\Library\src\lib\IQMathLibrary\libraries\IAR\MPY32\5xx_6xx\IQmathLib_IAR_MPY32_5xx_6xx_CPUX_large_code_large_data.lib
  PROGRAM MODULE, NAME : _IQNdiv

  SEGMENTS IN THE MODULE
  ======================
<CODE> 1 (was CODE)
  Relative segment, address: 8006 - 800B (0x6 bytes), align: 1
  Segment part 23.            Intra module refs:   _IQ21div
    -------------------------------------------------------------------------
<CODE> 1 (was CODE)
  Relative segment, address: 800C - 81D9 (0x1ce bytes), align: 1
  Segment part 26.
           ENTRY                   ADDRESS         REF BY
           =====                   =======         ======
           _IQ21div                800C            USS_computeVolumeFlowRate_water (USS_computeVolumeFlowRate_water)
                                                   USS_updateClockRelativeError (ussSwLibAlgorithms)
               CSTACK = 00000000 ( 00000026 )

    -------------------------------------------------------------------------
  PROGRAM MODULE, NAME : _IQNtables

  SEGMENTS IN THE MODULE
  ======================
DATA20_C
  Relative segment, address: DD40 - DD80 (0x41 bytes), align: 0
  Segment part 42.
           ENTRY                   ADDRESS         REF BY
           =====                   =======         ======
           _IQ6div_lookup          DD40            _IQ21div (_IQNdiv)

    -------------------------------------------------------------------------
  PROGRAM MODULE, NAME : _IQNtoF

  SEGMENTS IN THE MODULE
  ======================
<CODE> 1 (was CODE)
  Relative segment, address: 79FE - 7A7F (0x82 bytes), align: 1
  Segment part 17.
           ENTRY                   ADDRESS         REF BY
           =====                   =======         ======
           _IQ16toF                79FE            Handler_req_calibration_config_id (ussDCCommandHandlers)
                                                   USS_getResultsInFloat (ussSwLibAlgorithms)
               CSTACK = 00000000 ( 0000000C )
    -------------------------------------------------------------------------
<CODE> 1 (was CODE)
  Relative segment, address: 7A80 - 7A85 (0x6 bytes), align: 1
  Segment part 18.            Intra module refs:   _IQ16toF
                                                   _IQ21toF
                                                   _IQ27toF
                                                   _IQ30toF
    -------------------------------------------------------------------------
<CODE> 1 (was CODE)
  Relative segment, address: 7A86 - 7B0B (0x86 bytes), align: 1
  Segment part 23.
           ENTRY                   ADDRESS         REF BY
           =====                   =======         ======
           _IQ21toF                7A86            USS_updateClockRelativeError (ussSwLibAlgorithms)
               CSTACK = 00000000 ( 0000000C )
    -------------------------------------------------------------------------
<CODE> 1 (was CODE)
  Relative segment, address: 7B0C - 7B91 (0x86 bytes), align: 1
  Segment part 29.
           ENTRY                   ADDRESS         REF BY
           =====                   =======         ======
           _IQ27toF                7B0C            Segment part 10 (ussSwLibAlgorithms)
               CSTACK = 00000000 ( 0000000C )
    -------------------------------------------------------------------------
<CODE> 1 (was CODE)
  Relative segment, address: 7B92 - 7C17 (0x86 bytes), align: 1
  Segment part 32.
           ENTRY                   ADDRESS         REF BY
           =====                   =======         ======
           _IQ30toF                7B92            Segment part 35 (ussSwLibAlgorithms)
                                                   USS_getResultsInFloat (ussSwLibAlgorithms)
               CSTACK = 00000000 ( 0000000C )

    -------------------------------------------------------------------------
  PROGRAM MODULE, NAME : _IQNmpy

  SEGMENTS IN THE MODULE
  ======================
<CODE> 1 (was CODE)
  Relative segment, address: B146 - B14B (0x6 bytes), align: 1
  Segment part 4.             Intra module refs:   _IQ20mpy
    -------------------------------------------------------------------------
<CODE> 1 (was CODE)
  Relative segment, address: B14C - B153 (0x8 bytes), align: 1
  Segment part 5.             Intra module refs:   Segment part 4
    -------------------------------------------------------------------------
<CODE> 1 (was CODE)
  Relative segment, address: B154 - B15B (0x8 bytes), align: 1
  Segment part 6.             Intra module refs:   Segment part 5
    -------------------------------------------------------------------------
<CODE> 1 (was CODE)
  Relative segment, address: B15C - B163 (0x8 bytes), align: 1
  Segment part 7.             Intra module refs:   Segment part 6
    -------------------------------------------------------------------------
<CODE> 1 (was CODE)
  Relative segment, address: B164 - B16D (0xa bytes), align: 1
  Segment part 8.             Intra module refs:   Segment part 7
    -------------------------------------------------------------------------
<CODE> 1 (was CODE)
  Relative segment, address: B16E - B177 (0xa bytes), align: 1
  Segment part 22.
           ENTRY                   ADDRESS         REF BY
           =====                   =======         ======
           _IQ16mpy                B16E            USS_calibrateVFRFlow (ussSwLibVFRCalibFlow)
               CSTACK = 00000000 ( 00000004 )
    -------------------------------------------------------------------------
<CODE> 1 (was CODE)
  Relative segment, address: B178 - B185 (0xe bytes), align: 1
  Segment part 29.
           ENTRY                   ADDRESS         REF BY
           =====                   =======         ======
           _IQ20mpy                B178            USS_computeAbsTOF_lobe (USS_computeAbsTOF_lobe)
               CSTACK = 00000000 ( 00000004 )
    -------------------------------------------------------------------------
<CODE> 1 (was CODE)
  Relative segment, address: B186 - B18F (0xa bytes), align: 1
  Segment part 30.
           ENTRY                   ADDRESS         REF BY
           =====                   =======         ======
           _IQ21mpy                B186            USS_computeVolumeFlowRate_water (USS_computeVolumeFlowRate_water)
               CSTACK = 00000000 ( 00000004 )
    -------------------------------------------------------------------------
<CODE> 1 (was CODE)
  Relative segment, address: B190 - B199 (0xa bytes), align: 1
  Segment part 31.            Intra module refs:   _IQ21mpy
    -------------------------------------------------------------------------
<CODE> 1 (was CODE)
  Relative segment, address: B19A - B1A3 (0xa bytes), align: 1
  Segment part 33.            Intra module refs:   _IQ30mpy
    -------------------------------------------------------------------------
<CODE> 1 (was CODE)
  Relative segment, address: B1A4 - B1C3 (0x20 bytes), align: 1
  Segment part 41.
           ENTRY                   ADDRESS         REF BY
           =====                   =======         ======
           _IQ30mpy                B1A4            USS_computeDeltaTOF_estimate (USS_computeDeltaTOF_estimate)
               CSTACK = 00000000 ( 00000004 )

    -------------------------------------------------------------------------
  PROGRAM MODULE, NAME : _IQNrmpy

  SEGMENTS IN THE MODULE
  ======================
<CODE> 1 (was CODE)
  Relative segment, address: BFAE - BFB5 (0x8 bytes), align: 1
  Segment part 5.             Intra module refs:   _IQ12rmpy
    -------------------------------------------------------------------------
<CODE> 1 (was CODE)
  Relative segment, address: BFB6 - BFBD (0x8 bytes), align: 1
  Segment part 6.             Intra module refs:   Segment part 5
    -------------------------------------------------------------------------
<CODE> 1 (was CODE)
  Relative segment, address: BFBE - BFC5 (0x8 bytes), align: 1
  Segment part 7.             Intra module refs:   Segment part 6
    -------------------------------------------------------------------------
<CODE> 1 (was CODE)
  Relative segment, address: BFC6 - BFCF (0xa bytes), align: 1
  Segment part 8.             Intra module refs:   Segment part 7
    -------------------------------------------------------------------------
<CODE> 1 (was CODE)
  Relative segment, address: BFD0 - BFF7 (0x28 bytes), align: 1
  Segment part 18.
           ENTRY                   ADDRESS         REF BY
           =====                   =======         ======
           _IQ12rmpy               BFD0            USS_computeDeltaTOF_estimate (USS_computeDeltaTOF_estimate)
               CSTACK = 00000000 ( 00000004 )

    -------------------------------------------------------------------------
  PROGRAM MODULE, NAME : _IQNrsmpy

  SEGMENTS IN THE MODULE
  ======================
<CODE> 1 (was CODE)
  Relative segment, address: 91E0 - 922F (0x50 bytes), align: 1
  Segment part 16.
           ENTRY                   ADDRESS         REF BY
           =====                   =======         ======
           _IQ15rsmpy              91E0            USS_computeAbsTOF_lobe_search (USS_computeAbsTOF_lobe)
               CSTACK = 00000000 ( 00000004 )
    -------------------------------------------------------------------------
<CODE> 1 (was CODE)
  Relative segment, address: 9230 - 9237 (0x8 bytes), align: 1
  Segment part 18.            Intra module refs:   _IQ15rsmpy
                                                   _IQ19rsmpy
                                                   _IQ30rsmpy
    -------------------------------------------------------------------------
<CODE> 1 (was CODE)
  Relative segment, address: 9238 - 9293 (0x5c bytes), align: 1
  Segment part 21.
           ENTRY                   ADDRESS         REF BY
           =====                   =======         ======
           _IQ19rsmpy              9238            USS_computeAbsTOF_lobe_search (USS_computeAbsTOF_lobe)
               CSTACK = 00000000 ( 00000004 )
    -------------------------------------------------------------------------
<CODE> 1 (was CODE)
  Relative segment, address: 9294 - 92F1 (0x5e bytes), align: 1
  Segment part 32.
           ENTRY                   ADDRESS         REF BY
           =====                   =======         ======
           _IQ30rsmpy              9294            USS_computeAbsTOF_lobe_search (USS_computeAbsTOF_lobe)
               CSTACK = 00000000 ( 00000004 )

    *************************************************************************

  FILE NAME : C:\Git\msp430-uss-library\Library\src\examples\USS_Water_Demo\IAR\LPM\Obj\lcd_c.r43
  PROGRAM MODULE, NAME : lcd_c

  SEGMENTS IN THE MODULE
  ======================
<CODE> 1 (was CODE)
  Relative segment, address: C838 - C85F (0x28 bytes), align: 1
  Segment part 3.             Intra module refs:   LCD_C_setPinAsLCDFunctionEx
           LOCAL                   ADDRESS         
           =====                   =======         
           setLCDFunction          C838 
    -------------------------------------------------------------------------
<CODE> 1 (was CODE)
  Relative segment, address: C860 - C865 (0x6 bytes), align: 1
  Segment part 4.             Intra module refs:   setLCDFunction
           LOCAL                   ADDRESS         
           =====                   =======         
           ?Subroutine2            C860 
    -------------------------------------------------------------------------
<CODE> 1 (was CODE)
  Relative segment, address: C8C2 - C8EF (0x2e bytes), align: 1
  Segment part 5.
           ENTRY                   ADDRESS         REF BY
           =====                   =======         ======
           LCD_C_init              C8C2            hal_lcd_Init (hal_lcd)
    -------------------------------------------------------------------------
<CODE> 1 (was CODE)
  Relative segment, address: D674 - D679 (0x6 bytes), align: 1
  Segment part 6.
           ENTRY                   ADDRESS         REF BY
           =====                   =======         ======
           LCD_C_on                D674            hal_lcd_Init (hal_lcd)
                                                   hal_lcd_turnonLCD (hal_lcd)
    -------------------------------------------------------------------------
<CODE> 1 (was CODE)
  Relative segment, address: D69E - D6A3 (0x6 bytes), align: 1
  Segment part 7.
           ENTRY                   ADDRESS         REF BY
           =====                   =======         ======
           LCD_C_off               D69E            hal_lcd_turnoffLCD (hal_lcd)
    -------------------------------------------------------------------------
<CODE> 1 (was CODE)
  Relative segment, address: 8FB4 - 8FBD (0xa bytes), align: 1
  Segment part 12.
           ENTRY                   ADDRESS         REF BY
           =====                   =======         ======
           LCD_C_clearMemory       8FB4            hal_lcd_Init (hal_lcd)
                                                   hal_lcd_clearLCD (hal_lcd)
    -------------------------------------------------------------------------
<CODE> 1 (was CODE)
  Relative segment, address: 8FBE - 8FC3 (0x6 bytes), align: 1
  Segment part 17.            Intra module refs:   LCD_C_configChargePump
                                                   LCD_C_setVLCDVoltage
    -------------------------------------------------------------------------
<CODE> 1 (was CODE)
  Relative segment, address: 8FC4 - 8FCB (0x8 bytes), align: 1
  Segment part 19.
           ENTRY                   ADDRESS         REF BY
           =====                   =======         ======
           LCD_C_disableChargePump
                                   8FC4            hal_lcd_Init (hal_lcd)
    -------------------------------------------------------------------------
<CODE> 1 (was CODE)
  Relative segment, address: 8FCC - 8FFF (0x34 bytes), align: 1
  Segment part 22.
           ENTRY                   ADDRESS         REF BY
           =====                   =======         ======
           LCD_C_setVLCDSource     8FCC            hal_lcd_Init (hal_lcd)
    -------------------------------------------------------------------------
<CODE> 1 (was CODE)
  Relative segment, address: 9000 - 900B (0xc bytes), align: 1
  Segment part 23.
           ENTRY                   ADDRESS         REF BY
           =====                   =======         ======
           LCD_C_setVLCDVoltage    9000            hal_lcd_Init (hal_lcd)
    -------------------------------------------------------------------------
<CODE> 1 (was CODE)
  Relative segment, address: 900C - 906D (0x62 bytes), align: 1
  Segment part 27.
           ENTRY                   ADDRESS         REF BY
           =====                   =======         ======
           LCD_C_setPinAsLCDFunctionEx
                                   900C            hal_lcd_Init (hal_lcd)
               calls direct
    -------------------------------------------------------------------------
<CODE> 1 (was CODE)
  Relative segment, address: 906E - 9093 (0x26 bytes), align: 1
  Segment part 28.
           ENTRY                   ADDRESS         REF BY
           =====                   =======         ======
           LCD_C_setMemory         906E            hal_lcd_updatememory (hal_lcd)
    -------------------------------------------------------------------------
<CODE> 1 (was CODE)
  Relative segment, address: 9094 - 9099 (0x6 bytes), align: 1
  Segment part 29.            Intra module refs:   LCD_C_setMemory
           LOCAL                   ADDRESS         
           =====                   =======         
           ?Subroutine4            9094 
    -------------------------------------------------------------------------
<CODE> 1 (was CODE)
  Relative segment, address: 909A - 90A3 (0xa bytes), align: 1
  Segment part 30.            Intra module refs:   LCD_C_setMemory
           LOCAL                   ADDRESS         
           =====                   =======         
           ?Subroutine6            909A 
    -------------------------------------------------------------------------
<CODE> 1 (was CODE)
  Relative segment, address: 90A4 - 90AD (0xa bytes), align: 1
  Segment part 31.            Intra module refs:   LCD_C_setMemory
           LOCAL                   ADDRESS         
           =====                   =======         
           ?Subroutine0            90A4 
    -------------------------------------------------------------------------
<CODE> 1 (was CODE)
  Relative segment, address: 90AE - 90B3 (0x6 bytes), align: 1
  Segment part 32.            Intra module refs:   ?Subroutine0
                                                   ?Subroutine6
    -------------------------------------------------------------------------
<CODE> 1 (was CODE)
  Relative segment, address: 90B4 - 90C9 (0x16 bytes), align: 1
  Segment part 40.
           ENTRY                   ADDRESS         REF BY
           =====                   =======         ======
           LCD_C_configChargePump
                                   90B4            hal_lcd_Init (hal_lcd)

    *************************************************************************

  FILE NAME : C:\Git\msp430-uss-library\Library\src\examples\USS_Water_Demo\IAR\LPM\Obj\lcd_statemachine.r43
  PROGRAM MODULE, NAME : lcd_statemachine

  SEGMENTS IN THE MODULE
  ======================
DATA20_P
  Relative segment, address: 5028 - 502E (0x7 bytes), align: 0
  Segment part 15.            Intra module refs:   ?Subroutine3
                                                   Segment part 36
                                                   lcd_statemachine_displayScrollStatistics
                                                   lcd_statemachine_isSleep
                                                   lcd_statemachine_sleepLCD
                                                   lcd_statemachine_stateAction
                                                   lcd_statemachine_stateUpdate
           LOCAL                   ADDRESS         
           =====                   =======         
           g_lcd_statemachine      5028 
    -------------------------------------------------------------------------
DATA20_P
  Relative segment, address: 502F - 5041 (0x13 bytes), align: 0
  Segment part 16.            Intra module refs:   ?Subroutine1
                                                   ?Subroutine2
                                                   ?Subroutine5
                                                   lcd_statemachine_clearWriteData
                                                   lcd_statemachine_displayAvgDeltaTOF
                                                   lcd_statemachine_displayAvgFlowRate
                                                   lcd_statemachine_displayDeltaTOF
                                                   lcd_statemachine_displayDeltaTOFStandardDeviation
                                                   lcd_statemachine_displayFlowRate
                                                   lcd_statemachine_displayVolume
           LOCAL                   ADDRESS         
           =====                   =======         
           displayData             502F 
    -------------------------------------------------------------------------
<CODE> 1 (was CODE)
  Relative segment, address: AA18 - AAB5 (0x9e bytes), align: 1
  Segment part 20.
           ENTRY                   ADDRESS         REF BY
           =====                   =======         ======
           lcd_statemachine_stateUpdate
                                   AA18            HMI_PostAlgorithm_Update (hmi)
               calls direct
    -------------------------------------------------------------------------
<CODE> 1 (was CODE)
  Relative segment, address: B334 - B3AD (0x7a bytes), align: 1
  Segment part 41.
           ENTRY                   ADDRESS         REF BY
           =====                   =======         ======
           lcd_statemachine_stateAction
                                   B334            HMI_PostAlgorithm_Update (hmi)
               calls direct
    -------------------------------------------------------------------------
<CODE> 1 (was CODE)
  Relative segment, address: D360 - D36F (0x10 bytes), align: 1
  Segment part 42.
           ENTRY                   ADDRESS         REF BY
           =====                   =======         ======
           lcd_statemachine_isSleep
                                   D360            HMI_PostAlgorithm_Update (hmi)
    -------------------------------------------------------------------------
<CODE> 1 (was CODE)
  Relative segment, address: BF18 - BF63 (0x4c bytes), align: 1
  Segment part 19.            Intra module refs:   lcd_statemachine_displayScrollStatistics
                                                   lcd_statemachine_stateUpdate
           ENTRY                   ADDRESS         REF BY
           =====                   =======         ======
           lcd_satemachine_srollState
                                   BF18 
    -------------------------------------------------------------------------
<CODE> 1 (was CODE)
  Relative segment, address: C414 - C44B (0x38 bytes), align: 1
  Segment part 22.            Intra module refs:   ?Subroutine0
                                                   ?Subroutine1
           ENTRY                   ADDRESS         REF BY
           =====                   =======         ======
           lcd_statemachine_writeLCD
                                   C414 
               calls direct
    -------------------------------------------------------------------------
<CODE> 1 (was CODE)
  Relative segment, address: C7AE - C7DB (0x2e bytes), align: 1
  Segment part 40.            Intra module refs:   lcd_statemachine_stateAction
           ENTRY                   ADDRESS         REF BY
           =====                   =======         ======
           lcd_statemachine_clearWriteData
                                   C7AE 
               calls direct
    -------------------------------------------------------------------------
<CODE> 1 (was CODE)
  Relative segment, address: 8520 - 8555 (0x36 bytes), align: 1
  Segment part 26.            Intra module refs:   lcd_statemachine_displayScrollStatistics
                                                   lcd_statemachine_stateAction
           ENTRY                   ADDRESS         REF BY
           =====                   =======         ======
           lcd_statemachine_displayVolume
                                   8520 
               calls direct
    -------------------------------------------------------------------------
<CODE> 1 (was CODE)
  Relative segment, address: 8556 - 858B (0x36 bytes), align: 1
  Segment part 27.            Intra module refs:   lcd_statemachine_displayScrollStatistics
                                                   lcd_statemachine_stateAction
           ENTRY                   ADDRESS         REF BY
           =====                   =======         ======
           lcd_statemachine_displayAvgFlowRate
                                   8556 
               calls direct
    -------------------------------------------------------------------------
<CODE> 1 (was CODE)
  Relative segment, address: 858C - 85A7 (0x1c bytes), align: 1
  Segment part 28.            Intra module refs:   lcd_statemachine_displayAvgFlowRate
                                                   lcd_statemachine_displayFlowRate
                                                   lcd_statemachine_displayVolume
           LOCAL                   ADDRESS         
           =====                   =======         
           ?Subroutine2            858C 
    -------------------------------------------------------------------------
<CODE> 1 (was CODE)
  Relative segment, address: 85A8 - 85DD (0x36 bytes), align: 1
  Segment part 29.            Intra module refs:   lcd_statemachine_displayScrollStatistics
                                                   lcd_statemachine_stateAction
           ENTRY                   ADDRESS         REF BY
           =====                   =======         ======
           lcd_statemachine_displayFlowRate
                                   85A8 
               calls direct
    -------------------------------------------------------------------------
<CODE> 1 (was CODE)
  Relative segment, address: 85DE - 85E5 (0x8 bytes), align: 1
  Segment part 30.            Intra module refs:   lcd_statemachine_displayAvgDeltaTOF
                                                   lcd_statemachine_displayAvgFlowRate
                                                   lcd_statemachine_displayBatteryVoltage
                                                   lcd_statemachine_displayDateAndTime
                                                   lcd_statemachine_displayDeltaTOF
                                                   lcd_statemachine_displayDeltaTOFStandardDeviation
                                                   lcd_statemachine_displayFlowRate
                                                   lcd_statemachine_displayTemperature
                                                   lcd_statemachine_displayVolume
                                                   lcd_statemachine_sleepLCD
           LOCAL                   ADDRESS         
           =====                   =======         
           ?Subroutine3            85DE 
    -------------------------------------------------------------------------
<CODE> 1 (was CODE)
  Relative segment, address: 85E6 - 860F (0x2a bytes), align: 1
  Segment part 31.            Intra module refs:   lcd_statemachine_displayScrollStatistics
                                                   lcd_statemachine_stateAction
           ENTRY                   ADDRESS         REF BY
           =====                   =======         ======
           lcd_statemachine_displayDeltaTOFStandardDeviation
                                   85E6 
               calls direct
    -------------------------------------------------------------------------
<CODE> 1 (was CODE)
  Relative segment, address: 8610 - 8625 (0x16 bytes), align: 1
  Segment part 32.            Intra module refs:   lcd_statemachine_displayAvgDeltaTOF
                                                   lcd_statemachine_displayAvgFlowRate
                                                   lcd_statemachine_displayDeltaTOF
                                                   lcd_statemachine_displayDeltaTOFStandardDeviation
                                                   lcd_statemachine_displayFlowRate
                                                   lcd_statemachine_displayVolume
           LOCAL                   ADDRESS         
           =====                   =======         
           ?Subroutine0            8610 
    -------------------------------------------------------------------------
<CODE> 1 (was CODE)
  Relative segment, address: 8626 - 8653 (0x2e bytes), align: 1
  Segment part 33.            Intra module refs:   lcd_statemachine_displayScrollStatistics
                                                   lcd_statemachine_stateAction
           ENTRY                   ADDRESS         REF BY
           =====                   =======         ======
           lcd_statemachine_displayAvgDeltaTOF
                                   8626 
               calls direct
    -------------------------------------------------------------------------
<CODE> 1 (was CODE)
  Relative segment, address: 8654 - 865F (0xc bytes), align: 1
  Segment part 34.            Intra module refs:   lcd_statemachine_displayAvgDeltaTOF
                                                   lcd_statemachine_displayDeltaTOF
                                                   lcd_statemachine_displayDeltaTOFStandardDeviation
           LOCAL                   ADDRESS         
           =====                   =======         
           ?Subroutine5            8654 
    -------------------------------------------------------------------------
<CODE> 1 (was CODE)
  Relative segment, address: 8660 - 8663 (0x4 bytes), align: 1
  Segment part 35.            Intra module refs:   lcd_statemachine_displayAvgFlowRate
                                                   lcd_statemachine_displayFlowRate
                                                   lcd_statemachine_displayVolume
           LOCAL                   ADDRESS         
           =====                   =======         
           ?Subroutine4            8660 
    -------------------------------------------------------------------------
<CODE> 1 (was CODE)
  Relative segment, address: 8664 - 8673 (0x10 bytes), align: 1
  Segment part 36.            Intra module refs:   ?Subroutine4
                                                   lcd_statemachine_displayAvgDeltaTOF
                                                   lcd_statemachine_displayBatteryVoltage
                                                   lcd_statemachine_displayDateAndTime
                                                   lcd_statemachine_displayDeltaTOF
                                                   lcd_statemachine_displayDeltaTOFStandardDeviation
                                                   lcd_statemachine_displayTemperature
    -------------------------------------------------------------------------
<CODE> 1 (was CODE)
  Relative segment, address: 8674 - 86A1 (0x2e bytes), align: 1
  Segment part 37.            Intra module refs:   lcd_statemachine_displayScrollStatistics
                                                   lcd_statemachine_stateAction
           ENTRY                   ADDRESS         REF BY
           =====                   =======         ======
           lcd_statemachine_displayDeltaTOF
                                   8674 
               calls direct
    -------------------------------------------------------------------------
<CODE> 1 (was CODE)
  Relative segment, address: D1F0 - D201 (0x12 bytes), align: 1
  Segment part 39.            Intra module refs:   lcd_statemachine_stateAction
           ENTRY                   ADDRESS         REF BY
           =====                   =======         ======
           lcd_statemachine_sleepLCD
                                   D1F0 
               calls direct
    -------------------------------------------------------------------------
<CODE> 1 (was CODE)
  Relative segment, address: A778 - A825 (0xae bytes), align: 1
  Segment part 38.            Intra module refs:   lcd_statemachine_stateAction
           ENTRY                   ADDRESS         REF BY
           =====                   =======         ======
           lcd_statemachine_displayScrollStatistics
                                   A778 
               calls direct
    -------------------------------------------------------------------------
<CODE> 1 (was CODE)
  Relative segment, address: C6C0 - C6D1 (0x12 bytes), align: 1
  Segment part 23.            Intra module refs:   lcd_statemachine_displayScrollStatistics
                                                   lcd_statemachine_stateAction
           ENTRY                   ADDRESS         REF BY
           =====                   =======         ======
           lcd_statemachine_displayTemperature
                                   C6C0 
               calls direct
    -------------------------------------------------------------------------
<CODE> 1 (was CODE)
  Relative segment, address: C6D2 - C6D9 (0x8 bytes), align: 1
  Segment part 24.            Intra module refs:   lcd_statemachine_displayDateAndTime
                                                   lcd_statemachine_displayTemperature
           LOCAL                   ADDRESS         
           =====                   =======         
           ?Subroutine1            C6D2 
    -------------------------------------------------------------------------
<CODE> 1 (was CODE)
  Relative segment, address: C6DA - C6EF (0x16 bytes), align: 1
  Segment part 25.            Intra module refs:   lcd_statemachine_displayScrollStatistics
                                                   lcd_statemachine_stateAction
           ENTRY                   ADDRESS         REF BY
           =====                   =======         ======
           lcd_statemachine_displayDateAndTime
                                   C6DA 
               calls direct
    -------------------------------------------------------------------------
<CODE> 1 (was CODE)
  Relative segment, address: CF86 - CFA1 (0x1c bytes), align: 1
  Segment part 21.            Intra module refs:   lcd_statemachine_displayScrollStatistics
                                                   lcd_statemachine_stateAction
           ENTRY                   ADDRESS         REF BY
           =====                   =======         ======
           lcd_statemachine_displayBatteryVoltage
                                   CF86 
               calls direct
    -------------------------------------------------------------------------
DATA20_C
  Relative segment, address: DD81 - DD87 (0x7 bytes), align: 0
  Segment part 2.             Intra module refs:   lcd_statemachine_displayScrollStatistics
    -------------------------------------------------------------------------
DATA20_C
  Relative segment, address: DD88 - DD8C (0x5 bytes), align: 0
  Segment part 3.             Intra module refs:   lcd_statemachine_displayDeltaTOF
    -------------------------------------------------------------------------
DATA20_C
  Relative segment, address: DD8D - DD95 (0x9 bytes), align: 0
  Segment part 4.             Intra module refs:   lcd_statemachine_displayAvgDeltaTOF
    -------------------------------------------------------------------------
DATA20_C
  Relative segment, address: DD96 - DD9E (0x9 bytes), align: 0
  Segment part 5.             Intra module refs:   lcd_statemachine_displayDeltaTOFStandardDeviation
    -------------------------------------------------------------------------
DATA20_C
  Relative segment, address: DD9F - DDAF (0x11 bytes), align: 0
  Segment part 6.             Intra module refs:   lcd_statemachine_displayFlowRate
    -------------------------------------------------------------------------
DATA20_C
  Relative segment, address: DDB0 - DDC0 (0x11 bytes), align: 0
  Segment part 7.             Intra module refs:   lcd_statemachine_displayFlowRate
    -------------------------------------------------------------------------
DATA20_C
  Relative segment, address: DDC1 - DDD5 (0x15 bytes), align: 0
  Segment part 8.             Intra module refs:   lcd_statemachine_displayAvgFlowRate
    -------------------------------------------------------------------------
DATA20_C
  Relative segment, address: DDD6 - DDEA (0x15 bytes), align: 0
  Segment part 9.             Intra module refs:   lcd_statemachine_displayAvgFlowRate
    -------------------------------------------------------------------------
DATA20_C
  Relative segment, address: DDEB - DDF9 (0xf bytes), align: 0
  Segment part 10.            Intra module refs:   lcd_statemachine_displayVolume
    -------------------------------------------------------------------------
DATA20_C
  Relative segment, address: DDFA - DE07 (0xe bytes), align: 0
  Segment part 11.            Intra module refs:   lcd_statemachine_displayVolume
    -------------------------------------------------------------------------
DATA20_C
  Relative segment, address: DE08 - DE15 (0xe bytes), align: 0
  Segment part 12.            Intra module refs:   lcd_statemachine_displayDateAndTime
    -------------------------------------------------------------------------
DATA20_C
  Relative segment, address: DE16 - DE21 (0xc bytes), align: 0
  Segment part 13.            Intra module refs:   lcd_statemachine_displayTemperature
    -------------------------------------------------------------------------
DATA20_C
  Relative segment, address: DE22 - DE2D (0xc bytes), align: 0
  Segment part 14.            Intra module refs:   lcd_statemachine_displayBatteryVoltage

    *************************************************************************

  FILE NAME : C:\Git\msp430-uss-library\Library\src\examples\USS_Water_Demo\IAR\LPM\Obj\listener.r43
  PROGRAM MODULE, NAME : listener

  SEGMENTS IN THE MODULE
  ======================
<CODE> 1 (was CODE)
  Relative segment, address: C26A - C2A9 (0x40 bytes), align: 1
  Segment part 2.
           ENTRY                   ADDRESS         REF BY
           =====                   =======         ======
           Listener_registerListener
                                   C26A            Comm_addCmdListener (comm)
    -------------------------------------------------------------------------
<CODE> 1 (was CODE)
  Relative segment, address: C326 - C361 (0x3c bytes), align: 1
  Segment part 3.
           ENTRY                   ADDRESS         REF BY
           =====                   =======         ======
           Listener_lookupHandler
                                   C326            Comm_listenForCmd (comm)
               calls indirect

    *************************************************************************

  FILE NAME : C:\Git\msp430-uss-library\Library\src\examples\USS_Water_Demo\IAR\LPM\Obj\main.r43
  PROGRAM MODULE, NAME : main

  SEGMENTS IN THE MODULE
  ======================
VERSION
  Relative segment, address: 00043FF0 - 00043FF7 (0x8 bytes), align: 0
  Segment part 2. ROOT 
           ENTRY                   ADDRESS         REF BY
           =====                   =======         ======
           app_version             00043FF0 
    -------------------------------------------------------------------------
<CODE> 1 (was CODE)
  Relative segment, address: CC24 - CC47 (0x24 bytes), align: 1
  Segment part 3.
           ENTRY                   ADDRESS         REF BY
           =====                   =======         ======
           main                    CC24            Segment part 27 (?cstart)
               calls direct

    *************************************************************************

  FILE NAME : C:\Git\msp430-uss-library\Library\src\examples\USS_Water_Demo\IAR\LPM\Obj\mathematics.r43
  PROGRAM MODULE, NAME : mathematics

  SEGMENTS IN THE MODULE
  ======================
<CODE> 1 (was CODE)
  Relative segment, address: C2EA - C325 (0x3c bytes), align: 1
  Segment part 6.
           ENTRY                   ADDRESS         REF BY
           =====                   =======         ======
           mathematics_CalcAverageflt
                                   C2EA            results_Update (results)
               calls direct
    -------------------------------------------------------------------------
<CODE> 1 (was CODE)
  Relative segment, address: D3DE - D3EB (0xe bytes), align: 1
  Segment part 8.             Intra module refs:   mathematics_CalcAverageflt
                                                   mathematics_CalcStDevflt
           LOCAL                   ADDRESS         
           =====                   =======         
           ?Subroutine1            D3DE 
    -------------------------------------------------------------------------
<CODE> 1 (was CODE)
  Relative segment, address: BA34 - BA8D (0x5a bytes), align: 1
  Segment part 7.
           ENTRY                   ADDRESS         REF BY
           =====                   =======         ======
           mathematics_CalcStDevflt
                                   BA34            results_Update (results)
               calls direct
    -------------------------------------------------------------------------
DATA20_P
  Relative segment, address: 405A - 405D (0x4 bytes), align: 1
  Segment part 2.             Intra module refs:   mathematics_CalcPercentage
           ENTRY                   ADDRESS         REF BY
           =====                   =======         ======
           gtempa                  405A 
    -------------------------------------------------------------------------
DATA20_P
  Relative segment, address: 405E - 4061 (0x4 bytes), align: 1
  Segment part 3.             Intra module refs:   mathematics_CalcPercentage
           ENTRY                   ADDRESS         REF BY
           =====                   =======         ======
           gtempb                  405E 
    -------------------------------------------------------------------------
DATA20_P
  Relative segment, address: 4062 - 4065 (0x4 bytes), align: 1
  Segment part 4.             Intra module refs:   mathematics_CalcPercentage
           ENTRY                   ADDRESS         REF BY
           =====                   =======         ======
           g_minimum               4062 
    -------------------------------------------------------------------------
DATA20_P
  Relative segment, address: 4066 - 4069 (0x4 bytes), align: 1
  Segment part 5.             Intra module refs:   mathematics_CalcPercentage
           ENTRY                   ADDRESS         REF BY
           =====                   =======         ======
           g_maximum               4066 
    -------------------------------------------------------------------------
<CODE> 1 (was CODE)
  Relative segment, address: AE26 - AEB1 (0x8c bytes), align: 1
  Segment part 9.
           ENTRY                   ADDRESS         REF BY
           =====                   =======         ======
           mathematics_CalcPercentage
                                   AE26            results_Update (results)
               calls direct
    -------------------------------------------------------------------------
<CODE> 1 (was CODE)
  Relative segment, address: 756E - 77CB (0x25e bytes), align: 1
  Segment part 10.
           ENTRY                   ADDRESS         REF BY
           =====                   =======         ======
           mathematics_FloatToString
                                   756E            ?Subroutine0 (lcd_statemachine)
               calls direct
    -------------------------------------------------------------------------
<CODE> 1 (was CODE)
  Relative segment, address: D612 - D61B (0xa bytes), align: 1
  Segment part 11.            Intra module refs:   mathematics_FloatToString
           LOCAL                   ADDRESS         
           =====                   =======         
           ?Subroutine3            D612 
    -------------------------------------------------------------------------
<CODE> 1 (was CODE)
  Relative segment, address: D2FE - D305 (0x8 bytes), align: 1
  Segment part 12.            Intra module refs:   mathematics_FloatToString
           LOCAL                   ADDRESS         
           =====                   =======         
           ?Subroutine2            D2FE 
    -------------------------------------------------------------------------
<CODE> 1 (was CODE)
  Relative segment, address: D306 - D30F (0xa bytes), align: 1
  Segment part 13.            Intra module refs:   ?Subroutine2
                                                   mathematics_FloatToString
    -------------------------------------------------------------------------
<CODE> 1 (was CODE)
  Relative segment, address: CC6A - CC8B (0x22 bytes), align: 1
  Segment part 14.            Intra module refs:   mathematics_FloatToString
           LOCAL                   ADDRESS         
           =====                   =======         
           ?Subroutine0            CC6A 
    -------------------------------------------------------------------------
<CODE> 1 (was CODE)
  Relative segment, address: BAE8 - BB3F (0x58 bytes), align: 1
  Segment part 16.            Intra module refs:   mathematics_FloatToString
           ENTRY                   ADDRESS         REF BY
           =====                   =======         ======
           mathematics_IntToStr    BAE8 
               calls direct
    -------------------------------------------------------------------------
<CODE> 1 (was CODE)
  Relative segment, address: C750 - C77F (0x30 bytes), align: 1
  Segment part 15.            Intra module refs:   mathematics_IntToStr
           ENTRY                   ADDRESS         REF BY
           =====                   =======         ======
           mathematics_Reverse     C750 

    *************************************************************************

  FILE NAME : C:\Git\msp430-uss-library\Library\src\examples\USS_Water_Demo\IAR\LPM\Obj\mpu.r43
    *************************************************************************

  FILE NAME : C:\Git\msp430-uss-library\Library\src\examples\USS_Water_Demo\IAR\LPM\Obj\mpy32.r43
    *************************************************************************

  FILE NAME : C:\Git\msp430-uss-library\Library\src\examples\USS_Water_Demo\IAR\LPM\Obj\mtif.r43
    *************************************************************************

  FILE NAME : C:\Git\msp430-uss-library\Library\src\examples\USS_Water_Demo\IAR\LPM\Obj\packet.r43
  PROGRAM MODULE, NAME : packet

  SEGMENTS IN THE MODULE
  ======================
<CODE> 1 (was CODE)
  Relative segment, address: C9A0 - C9CB (0x2c bytes), align: 1
  Segment part 5.
           ENTRY                   ADDRESS         REF BY
           =====                   =======         ======
           Packet_appendChecksum   C9A0            Comm_writeBuffer (comm)
               calls direct
    -------------------------------------------------------------------------
<CODE> 1 (was CODE)
  Relative segment, address: 9B08 - 9BFB (0xf4 bytes), align: 1
  Segment part 8.
           ENTRY                   ADDRESS         REF BY
           =====                   =======         ======
           Packet_extractFromStream
                                   9B08            Comm_checkForPacket (comm)
               calls direct
    -------------------------------------------------------------------------
DATA20_I
  Relative segment, address: 1C06 - 1C06 (0x1 bytes), align: 0
  Segment part 2.             Intra module refs:   Packet_extractFromStream
           LOCAL                   ADDRESS         
           =====                   =======         
           Packet_extractFromStream::currIndex
                                   1C06 
    -------------------------------------------------------------------------
DATA20_Z
  Relative segment, address: 24A5 - 24A5 (0x1 bytes), align: 0
  Segment part 4.             Intra module refs:   Packet_extractFromStream
           LOCAL                   ADDRESS         
           =====                   =======         
           Packet_extractFromStream::detectedStuffedByte
                                   24A5 
    -------------------------------------------------------------------------
DATA20_ID
  Relative segment, address: DE50 - DE50 (0x1 bytes), align: 0
  Segment part 3.             Intra module refs:   Packet_extractFromStream::currIndex

    *************************************************************************

  FILE NAME : C:\Git\msp430-uss-library\Library\src\examples\USS_Water_Demo\IAR\LPM\Obj\ping_pong_buffer.r43
    *************************************************************************

  FILE NAME : C:\Git\msp430-uss-library\Library\src\examples\USS_Water_Demo\IAR\LPM\Obj\pmm.r43
  PROGRAM MODULE, NAME : pmm

  SEGMENTS IN THE MODULE
  ======================
DATA16_AN
  Relative segment, address: 0130 - 0131 (0x2 bytes), align: 0
  Segment part 1. ROOT        Intra module refs:   PMM_unlockLPM5
           ENTRY                   ADDRESS         REF BY
           =====                   =======         ======
           _A_PM5CTL0_L            0130 
           LOCAL                   ADDRESS         
           =====                   =======         
           PM5CTL0                 0130 
           PM5CTL0_H               0131 
           PM5CTL0_L               0130 
    -------------------------------------------------------------------------
<CODE> 1 (was CODE)
  Relative segment, address: D686 - D68B (0x6 bytes), align: 1
  Segment part 13.
           ENTRY                   ADDRESS         REF BY
           =====                   =======         ======
           PMM_unlockLPM5          D686            hal_system_GPIOInit (hal_system)

    *************************************************************************

  FILE NAME : C:\Git\msp430-uss-library\Library\src\lib\IQMathLibrary\libraries\IAR\MPY32\5xx_6xx\QmathLib_IAR_MPY32_5xx_6xx_CPUX_large_code_large_data.lib
  PROGRAM MODULE, NAME : _QNdiv

  SEGMENTS IN THE MODULE
  ======================
<CODE> 1 (was CODE)
  Relative segment, address: A1B0 - A26F (0xc0 bytes), align: 1
  Segment part 18.
           ENTRY                   ADDRESS         REF BY
           =====                   =======         ======
           _Q15div                 A1B0            USS_runParabolicInterpolation (USS_support_lea)
               CSTACK = 00000000 ( 00000014 )

    -------------------------------------------------------------------------
  PROGRAM MODULE, NAME : _QNtables

  SEGMENTS IN THE MODULE
  ======================
DATA20_C
  Relative segment, address: D70C - D80B (0x100 bytes), align: 1
  Segment part 12.
           ENTRY                   ADDRESS         REF BY
           =====                   =======         ======
           _Q16div_coeffs          D70C            _Q15div (_QNdiv)

    -------------------------------------------------------------------------
  PROGRAM MODULE, NAME : _QNrmpy

  SEGMENTS IN THE MODULE
  ======================
<CODE> 1 (was CODE)
  Relative segment, address: C91C - C91F (0x4 bytes), align: 1
  Segment part 4.             Intra module refs:   _Q12rmpy
    -------------------------------------------------------------------------
<CODE> 1 (was CODE)
  Relative segment, address: C920 - C923 (0x4 bytes), align: 1
  Segment part 5.             Intra module refs:   Segment part 4
    -------------------------------------------------------------------------
<CODE> 1 (was CODE)
  Relative segment, address: C924 - C927 (0x4 bytes), align: 1
  Segment part 6.             Intra module refs:   Segment part 5
    -------------------------------------------------------------------------
<CODE> 1 (was CODE)
  Relative segment, address: C928 - C92D (0x6 bytes), align: 1
  Segment part 7.             Intra module refs:   Segment part 6
    -------------------------------------------------------------------------
<CODE> 1 (was CODE)
  Relative segment, address: C92E - C947 (0x1a bytes), align: 1
  Segment part 17.
           ENTRY                   ADDRESS         REF BY
           =====                   =======         ======
           _Q12rmpy                C92E            Segment part 3 (USS_computeDeltaTOF_estimate)
               CSTACK = 00000000 ( 00000004 )

    *************************************************************************

  FILE NAME : C:\Git\msp430-uss-library\Library\src\examples\USS_Water_Demo\IAR\LPM\Obj\ram.r43
    *************************************************************************

  FILE NAME : C:\Git\msp430-uss-library\Library\src\examples\USS_Water_Demo\IAR\LPM\Obj\ref_a.r43
  PROGRAM MODULE, NAME : ref_a

  SEGMENTS IN THE MODULE
  ======================
<CODE> 1 (was CODE)
  Relative segment, address: D4F4 - D4FF (0xc bytes), align: 1
  Segment part 2.
           ENTRY                   ADDRESS         REF BY
           =====                   =======         ======
           Ref_A_setReferenceVoltage
                                   D4F4            hal_adc_init (hal_adc)
    -------------------------------------------------------------------------
<CODE> 1 (was CODE)
  Relative segment, address: D68C - D691 (0x6 bytes), align: 1
  Segment part 7.
           ENTRY                   ADDRESS         REF BY
           =====                   =======         ======
           Ref_A_enableReferenceVoltage
                                   D68C            ?Subroutine0 (hal_adc)
    -------------------------------------------------------------------------
<CODE> 1 (was CODE)
  Relative segment, address: D698 - D69D (0x6 bytes), align: 1
  Segment part 8.
           ENTRY                   ADDRESS         REF BY
           =====                   =======         ======
           Ref_A_disableReferenceVoltage
                                   D698            ?Subroutine1 (hal_adc)
    -------------------------------------------------------------------------
<CODE> 1 (was CODE)
  Relative segment, address: D0FC - D103 (0x8 bytes), align: 1
  Segment part 11.
           ENTRY                   ADDRESS         REF BY
           =====                   =======         ======
           Ref_A_isRefGenBusy      D0FC            hal_adc_init (hal_adc)
    -------------------------------------------------------------------------
<CODE> 1 (was CODE)
  Relative segment, address: D104 - D109 (0x6 bytes), align: 1
  Segment part 14.            Intra module refs:   Ref_A_isVariableReferenceVoltageOutputReady
           LOCAL                   ADDRESS         
           =====                   =======         
           ?Subroutine0            D104 
    -------------------------------------------------------------------------
<CODE> 1 (was CODE)
  Relative segment, address: D10A - D113 (0xa bytes), align: 1
  Segment part 15.
           ENTRY                   ADDRESS         REF BY
           =====                   =======         ======
           Ref_A_isVariableReferenceVoltageOutputReady
                                   D10A            ?Subroutine0 (hal_adc)

    *************************************************************************

  FILE NAME : C:\Git\msp430-uss-library\Library\src\examples\USS_Water_Demo\IAR\LPM\Obj\results.r43
  PROGRAM MODULE, NAME : results

  SEGMENTS IN THE MODULE
  ======================
DATA20_P
  Relative segment, address: 406A - 43AB (0x342 bytes), align: 1
  Segment part 2.             Intra module refs:   resultsCalcVolume
                                                   results_Reset
                                                   results_Update
           ENTRY                   ADDRESS         REF BY
           =====                   =======         ======
           g_ResultsOfLastMeasurement
                                   406A            ?Subroutine2 (lcd_statemachine)
                                                   lcd_statemachine_displayAvgDeltaTOF (lcd_statemachine)
                                                   lcd_statemachine_displayAvgFlowRate (lcd_statemachine)
                                                   lcd_statemachine_displayBatteryVoltage (lcd_statemachine)
                                                   lcd_statemachine_displayDeltaTOF (lcd_statemachine)
                                                   lcd_statemachine_displayDeltaTOFStandardDeviation (lcd_statemachine)
                                                   lcd_statemachine_displayFlowRate (lcd_statemachine)
                                                   lcd_statemachine_displayVolume (lcd_statemachine)
                                                   lcd_statemachine_stateAction (lcd_statemachine)
    -------------------------------------------------------------------------
DATA20_Z
  Relative segment, address: 1D24 - 1D25 (0x2 bytes), align: 1
  Segment part 3.             Intra module refs:   results_Update
           ENTRY                   ADDRESS         REF BY
           =====                   =======         ======
           datapointIndex          1D24 
    -------------------------------------------------------------------------
<CODE> 1 (was CODE)
  Relative segment, address: B9DA - BA33 (0x5a bytes), align: 1
  Segment part 4.
           ENTRY                   ADDRESS         REF BY
           =====                   =======         ======
           results_Reset           B9DA            HMI_Init (hmi)
                                                   HMI_updateUSSParameters (hmi)
    -------------------------------------------------------------------------
<CODE> 1 (was CODE)
  Relative segment, address: 9914 - 9A0D (0xfa bytes), align: 1
  Segment part 6.
           ENTRY                   ADDRESS         REF BY
           =====                   =======         ======
           results_Update          9914            HMI_PostAlgorithm_Update (hmi)
               calls direct
    -------------------------------------------------------------------------
<CODE> 1 (was CODE)
  Relative segment, address: C55E - C593 (0x36 bytes), align: 1
  Segment part 5.             Intra module refs:   results_Update
           ENTRY                   ADDRESS         REF BY
           =====                   =======         ======
           resultsCalcVolume       C55E 
               calls direct

    *************************************************************************

  FILE NAME : C:\Git\msp430-uss-library\Library\src\examples\USS_Water_Demo\IAR\LPM\Obj\rtc_b.r43
    *************************************************************************

  FILE NAME : C:\Git\msp430-uss-library\Library\src\examples\USS_Water_Demo\IAR\LPM\Obj\rtc_c.r43
    *************************************************************************

  FILE NAME : C:\Git\msp430-uss-library\Library\src\examples\USS_Water_Demo\IAR\LPM\Obj\saph.r43
    *************************************************************************

  FILE NAME : C:\Git\msp430-uss-library\Library\src\examples\USS_Water_Demo\IAR\LPM\Obj\sdhs.r43
    *************************************************************************

  FILE NAME : C:\Git\msp430-uss-library\Library\src\examples\USS_Water_Demo\IAR\LPM\Obj\sfr.r43
    *************************************************************************

  FILE NAME : C:\Git\msp430-uss-library\Library\src\examples\USS_Water_Demo\IAR\LPM\Obj\sysctl.r43
    *************************************************************************

  FILE NAME : C:\Git\msp430-uss-library\Library\src\examples\USS_Water_Demo\IAR\LPM\Obj\system_pre_init.r43
  PROGRAM MODULE, NAME : system_pre_init

  SEGMENTS IN THE MODULE
  ======================
DATA16_AN
  Relative segment, address: 015C - 015D (0x2 bytes), align: 0
  Segment part 1. ROOT        Intra module refs:   __low_level_init
           ENTRY                   ADDRESS         REF BY
           =====                   =======         ======
           _A_WDTCTL_L             015C 
           LOCAL                   ADDRESS         
           =====                   =======         
           WDTCTL                  015C 
           WDTCTL_H                015D 
           WDTCTL_L                015C 
    -------------------------------------------------------------------------
<CODE> 1 (was CODE)
  Relative segment, address: D5CC - D5D5 (0xa bytes), align: 1
  Segment part 3. ROOT 
           ENTRY                   ADDRESS         REF BY
           =====                   =======         ======
           __low_level_init        D5CC            ?cstart_call_low_level_init (?cstart)

    *************************************************************************

  FILE NAME : C:\Git\msp430-uss-library\Library\src\examples\USS_Water_Demo\IAR\LPM\Obj\testing.r43
  PROGRAM MODULE, NAME : testing

  SEGMENTS IN THE MODULE
  ======================
DATA20_Z
  Relative segment, address: 1D26 - 1D27 (0x2 bytes), align: 1
  Segment part 2.             Intra module refs:   Testing_PostMeasurement_Update
                                                   Testing_Update_Results
           ENTRY                   ADDRESS         REF BY
           =====                   =======         ======
           i16max_amplitude        1D26 
    -------------------------------------------------------------------------
<CODE> 1 (was CODE)
  Relative segment, address: D6CC - D6CD (0x2 bytes), align: 1
  Segment part 3.
           ENTRY                   ADDRESS         REF BY
           =====                   =======         ======
           Testing_PreMeasurement_Update
                                   D6CC            HMI_PreMeasurement_Update (hmi)
    -------------------------------------------------------------------------
<CODE> 1 (was CODE)
  Relative segment, address: B662 - B6CD (0x6c bytes), align: 1
  Segment part 4.
           ENTRY                   ADDRESS         REF BY
           =====                   =======         ======
           Testing_PostMeasurement_Update
                                   B662            HMI_PostMeasurement_Update (hmi)
               calls direct
    -------------------------------------------------------------------------
<CODE> 1 (was CODE)
  Relative segment, address: D6CA - D6CB (0x2 bytes), align: 1
  Segment part 5.
           ENTRY                   ADDRESS         REF BY
           =====                   =======         ======
           Testing_PostAlgorithm_Update
                                   D6CA            HMI_PostAlgorithm_Update (hmi)
    -------------------------------------------------------------------------
<CODE> 1 (was CODE)
  Relative segment, address: D6BC - D6BF (0x4 bytes), align: 1
  Segment part 6.
           ENTRY                   ADDRESS         REF BY
           =====                   =======         ======
           Testing_GUIUpdate_PreUSSConfig
                                   D6BC            HMI_updateUSSParameters (hmi)
               calls direct
    -------------------------------------------------------------------------
<CODE> 1 (was CODE)
  Relative segment, address: D6C0 - D6C3 (0x4 bytes), align: 1
  Segment part 7.
           ENTRY                   ADDRESS         REF BY
           =====                   =======         ======
           Testing_GUIUpdate_PostUSSConfig
                                   D6C0            HMI_updateUSSParameters (hmi)
               calls direct
    -------------------------------------------------------------------------
<CODE> 1 (was CODE)
  Relative segment, address: CE7E - CE9D (0x20 bytes), align: 1
  Segment part 8.
           ENTRY                   ADDRESS         REF BY
           =====                   =======         ======
           Testing_Update_Results
                                   CE7E            HMI_PostAlgorithm_Update (hmi)
               calls direct

    *************************************************************************

  FILE NAME : C:\Git\msp430-uss-library\Library\src\examples\USS_Water_Demo\IAR\LPM\Obj\timeout.r43
  PROGRAM MODULE, NAME : timeout

  SEGMENTS IN THE MODULE
  ======================
DATA20_Z
  Relative segment, address: 1D28 - 1D2B (0x4 bytes), align: 1
  Segment part 4.             Intra module refs:   FunctionTimer_A_ISR
                                                   FunctionTimer_B_ISR
                                                   Timer_scheduleDelayedFunction
                                                   Timer_startDelayedFunctionTimer
           ENTRY                   ADDRESS         REF BY
           =====                   =======         ======
           g_pFunctionTimer        1D28 
    -------------------------------------------------------------------------
<CODE> 1 (was CODE)
  Relative segment, address: CE9E - CEBB (0x1e bytes), align: 1
  Segment part 5.
           ENTRY                   ADDRESS         REF BY
           =====                   =======         ======
           Timer_startDelayedFunctionTimer
                                   CE9E            I2CSlave_openPort (i2cslave)
    -------------------------------------------------------------------------
<CODE> 1 (was CODE)
  Relative segment, address: D634 - D63B (0x8 bytes), align: 1
  Segment part 6.
           ENTRY                   ADDRESS         REF BY
           =====                   =======         ======
           Timer_stopDelayedFunctionTimer
                                   D634            I2CSlave_closePort (i2cslave)
                                                   I2CSlave_openPort (i2cslave)
    -------------------------------------------------------------------------
<CODE> 1 (was CODE)
  Relative segment, address: C1AA - C1E9 (0x40 bytes), align: 1
  Segment part 7.
           ENTRY                   ADDRESS         REF BY
           =====                   =======         ======
           Timer_scheduleDelayedFunction
                                   C1AA            I2CSlave_ISR (i2cslave)
                                                   I2CSlave_setRequestFlag (i2cslave)
    -------------------------------------------------------------------------
<CODE> 1 (was CODE)
  Relative segment, address: CACE - CAF5 (0x28 bytes), align: 1
  Segment part 8.
           ENTRY                   ADDRESS         REF BY
           =====                   =======         ======
           Timer_cancelDelayedFunction
                                   CACE            I2CSlave_ISR (i2cslave)
                                                   I2CSlave_setRequestFlag (i2cslave)
    -------------------------------------------------------------------------
ISR_CODE
  Relative segment, address: 5264 - 5271 (0xe bytes), align: 1
  Segment part 9.             Intra module refs:   FunctionTimer_A_ISR::??INTVEC 76
           ENTRY                   ADDRESS         REF BY
           =====                   =======         ======
           FunctionTimer_A_ISR     5264 
               interrupt function
               calls indirect
    -------------------------------------------------------------------------
ISR_CODE
  Relative segment, address: 5272 - 5285 (0x14 bytes), align: 1
  Segment part 10.            Intra module refs:   FunctionTimer_A_ISR
                                                   FunctionTimer_B_ISR
           LOCAL                   ADDRESS         
           =====                   =======         
           ?Subroutine0            5272 
    -------------------------------------------------------------------------
ISR_CODE
  Relative segment, address: 5286 - 5297 (0x12 bytes), align: 1
  Segment part 11.            Intra module refs:   FunctionTimer_B_ISR::??INTVEC 74
           ENTRY                   ADDRESS         REF BY
           =====                   =======         ======
           FunctionTimer_B_ISR     5286 
               interrupt function
               calls indirect
    -------------------------------------------------------------------------
INTVEC
  Common segment, address: FF90 - FFDB (0x4c bytes), align: 1
  Segment part 1. ROOT 
           ENTRY                   ADDRESS         REF BY
           =====                   =======         ======
           FunctionTimer_B_ISR::??INTVEC 74
                                   FFDA 
    -------------------------------------------------------------------------
INTVEC
  Common segment, address: FF90 - FFDD (0x4e bytes), align: 1
  Segment part 2. ROOT 
           ENTRY                   ADDRESS         REF BY
           =====                   =======         ======
           FunctionTimer_A_ISR::??INTVEC 76
                                   FFDC 

    *************************************************************************

  FILE NAME : C:\Git\msp430-uss-library\Library\src\examples\USS_Water_Demo\IAR\LPM\Obj\timer_a.r43
    *************************************************************************

  FILE NAME : C:\Git\msp430-uss-library\Library\src\examples\USS_Water_Demo\IAR\LPM\Obj\timer_b.r43
    *************************************************************************

  FILE NAME : C:\Git\msp430-uss-library\Library\src\examples\USS_Water_Demo\IAR\LPM\Obj\tlv.r43
  PROGRAM MODULE, NAME : tlv

  SEGMENTS IN THE MODULE
  ======================
<CODE> 1 (was CODE)
  Relative segment, address: BC9A - BCED (0x54 bytes), align: 1
  Segment part 2.
           ENTRY                   ADDRESS         REF BY
           =====                   =======         ======
           TLV_getInfo             BC9A            hal_adc_init (hal_adc)

    *************************************************************************

  FILE NAME : C:\Git\msp430-uss-library\Library\src\examples\USS_Water_Demo\IAR\LPM\Obj\uart.r43
    *************************************************************************

  FILE NAME : C:\Git\msp430-uss-library\Library\src\examples\USS_Water_Demo\IAR\LPM\Obj\USS_App_userConfig.r43
  PROGRAM MODULE, NAME : USS_App_userConfig

  SEGMENTS IN THE MODULE
  ======================
DATA20_P
  Relative segment, address: 43AC - 43AD (0x2 bytes), align: 1
  Segment part 2.
           ENTRY                   ADDRESS         REF BY
           =====                   =======         ======
           USS_App_userConfig      43AC            HMI_updateUSSParameters (hmi)

    *************************************************************************

  FILE NAME : C:\Git\msp430-uss-library\Library\src\examples\USS_Water_Demo\IAR\LPM\Obj\USS_Lib_HAL.r43
  PROGRAM MODULE, NAME : USS_Lib_HAL

  SEGMENTS IN THE MODULE
  ======================
DATA16_AN
  Relative segment, address: 050E - 050F (0x2 bytes), align: 0
  Segment part 1. ROOT        Intra module refs:   DMA_HSPLL
           ENTRY                   ADDRESS         REF BY
           =====                   =======         ======
           DMAIV                   050E 
    -------------------------------------------------------------------------
DATA16_AN
  Relative segment, address: 0EE0 - 0EE1 (0x2 bytes), align: 0
  Segment part 2. ROOT        Intra module refs:   ISR_HSPLL
           ENTRY                   ADDRESS         REF BY
           =====                   =======         ======
           _A_HSPLLIIDX_L          0EE0 
           LOCAL                   ADDRESS         
           =====                   =======         
           HSPLLIIDX               0EE0 
           HSPLLIIDX_H             0EE1 
           HSPLLIIDX_L             0EE0 
    -------------------------------------------------------------------------
DATA16_AN
  Relative segment, address: 0AF8 - 0AFB (0x4 bytes), align: 0
  Segment part 3. ROOT        Intra module refs:   USS_LEA_ISR
           ENTRY                   ADDRESS         REF BY
           =====                   =======         ======
           _A_LEAIFG_W0            0AF8 
           LOCAL                   ADDRESS         
           =====                   =======         
           LEAIFG                  0AF8 
           LEAIFGH                 0AFA 
           LEAIFGL                 0AF8 
           LEAIFG_W0               0AF8 
           LEAIFG_W1               0AFA 
    -------------------------------------------------------------------------
DATA16_AN
  Relative segment, address: 0E00 - 0E01 (0x2 bytes), align: 0
  Segment part 4. ROOT        Intra module refs:   ISR_SAPH
           ENTRY                   ADDRESS         REF BY
           =====                   =======         ======
           _A_SAPHIIDX_L           0E00 
           LOCAL                   ADDRESS         
           =====                   =======         
           SAPHIIDX                0E00 
           SAPHIIDX_H              0E01 
           SAPHIIDX_L              0E00 
    -------------------------------------------------------------------------
DATA16_AN
  Relative segment, address: 0E80 - 0E81 (0x2 bytes), align: 0
  Segment part 5. ROOT        Intra module refs:   ISR_SDHS
           ENTRY                   ADDRESS         REF BY
           =====                   =======         ======
           _A_SDHSIIDX_L           0E80 
           LOCAL                   ADDRESS         
           =====                   =======         
           SDHSIIDX                0E80 
           SDHSIIDX_H              0E81 
           SDHSIIDX_L              0E80 
    -------------------------------------------------------------------------
DATA16_AN
  Relative segment, address: 0EC0 - 0EC1 (0x2 bytes), align: 0
  Segment part 6. ROOT        Intra module refs:   ISR_UUPS
           ENTRY                   ADDRESS         REF BY
           =====                   =======         ======
           _A_UUPSIIDX_L           0EC0 
           LOCAL                   ADDRESS         
           =====                   =======         
           UUPSIIDX                0EC0 
           UUPSIIDX_H              0EC1 
           UUPSIIDX_L              0EC0 
    -------------------------------------------------------------------------
DATA20_P
  Relative segment, address: 43AE - 43B1 (0x4 bytes), align: 1
  Segment part 16.            Intra module refs:   ISR_SAPH
           ENTRY                   ADDRESS         REF BY
           =====                   =======         ======
           USSSWLIB_SAPH_DATAERR_callback
                                   43AE 
    -------------------------------------------------------------------------
DATA20_P
  Relative segment, address: 43B2 - 43B5 (0x4 bytes), align: 1
  Segment part 17.            Intra module refs:   ISR_SAPH
           ENTRY                   ADDRESS         REF BY
           =====                   =======         ======
           USSSWLIB_SAPH_TMFTO_callback
                                   43B2 
    -------------------------------------------------------------------------
DATA20_P
  Relative segment, address: 43B6 - 43B9 (0x4 bytes), align: 1
  Segment part 18.            Intra module refs:   ISR_SAPH
           ENTRY                   ADDRESS         REF BY
           =====                   =======         ======
           USSSWLIB_SAPH_SEQDN_callback
                                   43B6 
    -------------------------------------------------------------------------
DATA20_P
  Relative segment, address: 43BA - 43BD (0x4 bytes), align: 1
  Segment part 19.            Intra module refs:   ISR_SAPH
           ENTRY                   ADDRESS         REF BY
           =====                   =======         ======
           USSSWLIB_SAPH_PNGDN_callback
                                   43BA 
    -------------------------------------------------------------------------
DATA20_P
  Relative segment, address: 43BE - 43C1 (0x4 bytes), align: 1
  Segment part 20.            Intra module refs:   ISR_UUPS
           ENTRY                   ADDRESS         REF BY
           =====                   =======         ======
           USSSWLIB_UUPS_PREQIG_callback
                                   43BE 
    -------------------------------------------------------------------------
DATA20_P
  Relative segment, address: 43C2 - 43C5 (0x4 bytes), align: 1
  Segment part 21.            Intra module refs:   ISR_UUPS
           ENTRY                   ADDRESS         REF BY
           =====                   =======         ======
           USSSWLIB_UUPS_PTMOUT_callback
                                   43C2 
    -------------------------------------------------------------------------
DATA20_P
  Relative segment, address: 43C6 - 43C9 (0x4 bytes), align: 1
  Segment part 22.            Intra module refs:   ISR_UUPS
           ENTRY                   ADDRESS         REF BY
           =====                   =======         ======
           USSSWLIB_UUPS_STPBYDB_callback
                                   43C6 
    -------------------------------------------------------------------------
DATA20_P
  Relative segment, address: 43CA - 43CD (0x4 bytes), align: 1
  Segment part 23.            Intra module refs:   ISR_HSPLL
           ENTRY                   ADDRESS         REF BY
           =====                   =======         ======
           USSSWLIB_HSPLL_PLLunlock_callback
                                   43CA 
    -------------------------------------------------------------------------
DATA20_P
  Relative segment, address: 43CE - 43D1 (0x4 bytes), align: 1
  Segment part 24.            Intra module refs:   ISR_SDHS
           ENTRY                   ADDRESS         REF BY
           =====                   =======         ======
           USSSWLIB_SDHS_OVF_callback
                                   43CE 
    -------------------------------------------------------------------------
DATA20_P
  Relative segment, address: 43D2 - 43D5 (0x4 bytes), align: 1
  Segment part 25.            Intra module refs:   ISR_SDHS
           ENTRY                   ADDRESS         REF BY
           =====                   =======         ======
           USSSWLIB_SDHS_ACQDONE_callback
                                   43D2 
    -------------------------------------------------------------------------
DATA20_P
  Relative segment, address: 43D6 - 43D9 (0x4 bytes), align: 1
  Segment part 26.            Intra module refs:   ISR_SDHS
           ENTRY                   ADDRESS         REF BY
           =====                   =======         ======
           USSSWLIB_SDHS_SSTRG_callback
                                   43D6 
    -------------------------------------------------------------------------
DATA20_P
  Relative segment, address: 43DA - 43DD (0x4 bytes), align: 1
  Segment part 27.            Intra module refs:   ISR_SDHS
           ENTRY                   ADDRESS         REF BY
           =====                   =======         ======
           USSSWLIB_SDHS_DTRDY_callback
                                   43DA 
    -------------------------------------------------------------------------
DATA20_P
  Relative segment, address: 43DE - 43E1 (0x4 bytes), align: 1
  Segment part 28.            Intra module refs:   ISR_SDHS
           ENTRY                   ADDRESS         REF BY
           =====                   =======         ======
           USSSWLIB_SDHS_WINHI_callback
                                   43DE 
    -------------------------------------------------------------------------
DATA20_P
  Relative segment, address: 43E2 - 43E5 (0x4 bytes), align: 1
  Segment part 29.            Intra module refs:   ISR_SDHS
           ENTRY                   ADDRESS         REF BY
           =====                   =======         ======
           USSSWLIB_SDHS_WINLO_callback
                                   43E2 
    -------------------------------------------------------------------------
DATA20_Z
  Relative segment, address: 1D2C - 1D2D (0x2 bytes), align: 1
  Segment part 30.            Intra module refs:   USSLIB_HAL_TIMER_INT
           ENTRY                   ADDRESS         REF BY
           =====                   =======         ======
           USSSWLIB_USS_measurementPeriod
                                   1D2C            USS_configAppTimerPeriod (ussSwLibMeasurement)
    -------------------------------------------------------------------------
ISR_CODE
  Relative segment, address: 5298 - 52BD (0x26 bytes), align: 1
  Segment part 31.            Intra module refs:   USSLIB_HAL_TIMER_INT::??INTVEC 82
           ENTRY                   ADDRESS         REF BY
           =====                   =======         ======
           USSLIB_HAL_TIMER_INT    5298 
               interrupt function
    -------------------------------------------------------------------------
ISR_CODE
  Relative segment, address: 52BE - 52ED (0x30 bytes), align: 1
  Segment part 32.            Intra module refs:   USSLIB_HAL_TIMER_INT_CCRn::??INTVEC 80
           ENTRY                   ADDRESS         REF BY
           =====                   =======         ======
           USSLIB_HAL_TIMER_INT_CCRn
                                   52BE 
               interrupt function
    -------------------------------------------------------------------------
ISR_CODE
  Relative segment, address: 52EE - 5355 (0x68 bytes), align: 1
  Segment part 33.            Intra module refs:   ISR_SDHS::??INTVEC 28
           ENTRY                   ADDRESS         REF BY
           =====                   =======         ======
           ISR_SDHS                52EE 
               interrupt function
               calls indirect
    -------------------------------------------------------------------------
ISR_CODE
  Relative segment, address: 5356 - 538F (0x3a bytes), align: 1
  Segment part 34.            Intra module refs:   ISR_UUPS::??INTVEC 34
           ENTRY                   ADDRESS         REF BY
           =====                   =======         ======
           ISR_UUPS                5356 
               interrupt function
               calls indirect
    -------------------------------------------------------------------------
ISR_CODE
  Relative segment, address: 5390 - 53D5 (0x46 bytes), align: 1
  Segment part 35.            Intra module refs:   ISR_SAPH::??INTVEC 30
           ENTRY                   ADDRESS         REF BY
           =====                   =======         ======
           ISR_SAPH                5390 
               interrupt function
               calls indirect
    -------------------------------------------------------------------------
ISR_CODE
  Relative segment, address: 53D6 - 53DF (0xa bytes), align: 1
  Segment part 36.            Intra module refs:   ISR_HSPLL
                                                   ISR_SAPH
                                                   ISR_SDHS
                                                   ISR_UUPS
           LOCAL                   ADDRESS         
           =====                   =======         
           ?Subroutine0            53D6 
    -------------------------------------------------------------------------
ISR_CODE
  Relative segment, address: 53E0 - 53FF (0x20 bytes), align: 1
  Segment part 37.            Intra module refs:   ISR_HSPLL::??INTVEC 32
           ENTRY                   ADDRESS         REF BY
           =====                   =======         ======
           ISR_HSPLL               53E0 
               interrupt function
               calls indirect
    -------------------------------------------------------------------------
ISR_CODE
  Relative segment, address: 5400 - 5409 (0xa bytes), align: 1
  Segment part 38.            Intra module refs:   DMA_HSPLL::??INTVEC 84
           ENTRY                   ADDRESS         REF BY
           =====                   =======         ======
           DMA_HSPLL               5400 
               interrupt function
    -------------------------------------------------------------------------
ISR_CODE
  Relative segment, address: 540A - 542B (0x22 bytes), align: 1
  Segment part 39.            Intra module refs:   USS_LEA_ISR::??INTVEC 36
           ENTRY                   ADDRESS         REF BY
           =====                   =======         ======
           USS_LEA_ISR             540A 
               interrupt function
    -------------------------------------------------------------------------
INTVEC
  Common segment, address: FF90 - FFAD (0x1e bytes), align: 1
  Segment part 7. ROOT 
           ENTRY                   ADDRESS         REF BY
           =====                   =======         ======
           ISR_SDHS::??INTVEC 28   FFAC 
    -------------------------------------------------------------------------
INTVEC
  Common segment, address: FF90 - FFAF (0x20 bytes), align: 1
  Segment part 8. ROOT 
           ENTRY                   ADDRESS         REF BY
           =====                   =======         ======
           ISR_SAPH::??INTVEC 30   FFAE 
    -------------------------------------------------------------------------
INTVEC
  Common segment, address: FF90 - FFB1 (0x22 bytes), align: 1
  Segment part 9. ROOT 
           ENTRY                   ADDRESS         REF BY
           =====                   =======         ======
           ISR_HSPLL::??INTVEC 32
                                   FFB0 
    -------------------------------------------------------------------------
INTVEC
  Common segment, address: FF90 - FFB3 (0x24 bytes), align: 1
  Segment part 10. ROOT 
           ENTRY                   ADDRESS         REF BY
           =====                   =======         ======
           ISR_UUPS::??INTVEC 34   FFB2 
    -------------------------------------------------------------------------
INTVEC
  Common segment, address: FF90 - FFB5 (0x26 bytes), align: 1
  Segment part 11. ROOT 
           ENTRY                   ADDRESS         REF BY
           =====                   =======         ======
           USS_LEA_ISR::??INTVEC 36
                                   FFB4 
    -------------------------------------------------------------------------
INTVEC
  Common segment, address: FF90 - FFE1 (0x52 bytes), align: 1
  Segment part 12. ROOT 
           ENTRY                   ADDRESS         REF BY
           =====                   =======         ======
           USSLIB_HAL_TIMER_INT_CCRn::??INTVEC 80
                                   FFE0 
    -------------------------------------------------------------------------
INTVEC
  Common segment, address: FF90 - FFE3 (0x54 bytes), align: 1
  Segment part 13. ROOT 
           ENTRY                   ADDRESS         REF BY
           =====                   =======         ======
           USSLIB_HAL_TIMER_INT::??INTVEC 82
                                   FFE2 
    -------------------------------------------------------------------------
INTVEC
  Common segment, address: FF90 - FFE5 (0x56 bytes), align: 1
  Segment part 14. ROOT 
           ENTRY                   ADDRESS         REF BY
           =====                   =======         ======
           DMA_HSPLL::??INTVEC 84
                                   FFE4 

    *************************************************************************

  FILE NAME : C:\Git\msp430-uss-library\Library\src\lib\USS_optimized\Lobe\IAR\USS_SW_IAR_large_code_large_data.lib
  LIBRARY MODULE, NAME : USS_computeAbsTOF_lobe

  SEGMENTS IN THE MODULE
  ======================
DATA16_AN
  Relative segment, address: 04C2 - 04C3 (0x2 bytes), align: 0
  Segment part 1. ROOT        Intra module refs:   USS_q15mpy_inline
           ENTRY                   ADDRESS         REF BY
           =====                   =======         ======
           _A_MPYS_L               04C2 
    -------------------------------------------------------------------------
DATA16_AN
  Relative segment, address: 04C8 - 04C9 (0x2 bytes), align: 0
  Segment part 2. ROOT        Intra module refs:   USS_corr3 (USS_support_lea)
                                                   USS_q15mpy_inline
           ENTRY                   ADDRESS         REF BY
           =====                   =======         ======
           _A_OP2_L                04C8 
    -------------------------------------------------------------------------
DATA16_AN
  Relative segment, address: 04CC - 04CD (0x2 bytes), align: 0
  Segment part 3. ROOT        Intra module refs:   USS_corr3 (USS_support_lea)
                                                   USS_q15mpy_inline
           ENTRY                   ADDRESS         REF BY
           =====                   =======         ======
           _A_RESHI_L              04CC 
    -------------------------------------------------------------------------
DATA16_AN
  Relative segment, address: 04EC - 04ED (0x2 bytes), align: 0
  Segment part 4. ROOT        Intra module refs:   USS_computeVolumeFlowRate_water (USS_computeVolumeFlowRate_water)
                                                   USS_corr3 (USS_support_lea)
                                                   USS_iq31Div (USS_math)
                                                   USS_iq31mpy_inline (USS_cosInterpolation)
                                                   USS_iq31mpy_inline (USS_math)
                                                   USS_q15mpy_inline
           ENTRY                   ADDRESS         REF BY
           =====                   =======         ======
           _A_MPY32CTL0_L          04EC 
    -------------------------------------------------------------------------
<CODE> 1 (was CODE)
  Relative segment, address: D096 - D0AF (0x1a bytes), align: 1
  Segment part 6.             Intra module refs:   USS_computeAbsTOF_lobe_track
           LOCAL                   ADDRESS         
           =====                   =======         
           USS_q15mpy_inline       D096 
    -------------------------------------------------------------------------
<CODE> 1 (was CODE)
  Relative segment, address: BA8E - BAE7 (0x5a bytes), align: 1
  Segment part 12.
           ENTRY                   ADDRESS         REF BY
           =====                   =======         ======
           USS_computeAbsTOF_lobe
                                   BA8E            Segment part 12 (USS_run)
               calls direct
    -------------------------------------------------------------------------
<CODE> 1 (was CODE)
  Relative segment, address: 7C18 - 7E21 (0x20a bytes), align: 1
  Segment part 10.            Intra module refs:   USS_computeAbsTOF_lobe
           LOCAL                   ADDRESS         
           =====                   =======         
           USS_computeAbsTOF_lobe_search
                                   7C18 
               calls direct
    -------------------------------------------------------------------------
<CODE> 1 (was CODE)
  Relative segment, address: D07C - D095 (0x1a bytes), align: 1
  Segment part 11.            Intra module refs:   USS_computeAbsTOF_lobe_search
    -------------------------------------------------------------------------
<CODE> 1 (was CODE)
  Relative segment, address: 950C - 9611 (0x106 bytes), align: 1
  Segment part 7.             Intra module refs:   USS_computeAbsTOF_lobe
           LOCAL                   ADDRESS         
           =====                   =======         
           USS_computeAbsTOF_lobe_track
                                   950C 
               calls direct
    -------------------------------------------------------------------------
<CODE> 1 (was CODE)
  Relative segment, address: D53C - D53D (0x2 bytes), align: 1
  Segment part 8.             Intra module refs:   USS_computeAbsTOF_lobe_track
    -------------------------------------------------------------------------
<CODE> 1 (was CODE)
  Relative segment, address: D53E - D547 (0xa bytes), align: 1
  Segment part 9.             Intra module refs:   Segment part 8
                                                   USS_computeAbsTOF_lobe_track

    -------------------------------------------------------------------------
  LIBRARY MODULE, NAME : USS_computeDeltaTOF_estimate

  SEGMENTS IN THE MODULE
  ======================
<CODE> 1 (was CODE)
  Relative segment, address: 675A - 6B6D (0x414 bytes), align: 1
  Segment part 5.
           ENTRY                   ADDRESS         REF BY
           =====                   =======         ======
           USS_computeDeltaTOF_estimate
                                   675A            Segment part 14 (USS_run)
               calls direct
    -------------------------------------------------------------------------
<CODE> 1 (was CODE)
  Relative segment, address: D4E8 - D4F3 (0xc bytes), align: 1
  Segment part 6.             Intra module refs:   USS_computeDeltaTOF_estimate
    -------------------------------------------------------------------------
<CODE> 1 (was CODE)
  Relative segment, address: D66C - D673 (0x8 bytes), align: 1
  Segment part 7.             Intra module refs:   USS_computeDeltaTOF_estimate
    -------------------------------------------------------------------------
<CODE> 1 (was CODE)
  Relative segment, address: D4A2 - D4AF (0xe bytes), align: 1
  Segment part 8.             Intra module refs:   USS_computeDeltaTOF_estimate
    -------------------------------------------------------------------------
<CODE> 1 (was CODE)
  Relative segment, address: D330 - D33F (0x10 bytes), align: 1
  Segment part 9.             Intra module refs:   USS_computeDeltaTOF_estimate
    -------------------------------------------------------------------------
<CODE> 1 (was CODE)
  Relative segment, address: D24A - D25B (0x12 bytes), align: 1
  Segment part 10.            Intra module refs:   Segment part 7
                                                   Segment part 9
    -------------------------------------------------------------------------
<CODE> 1 (was CODE)
  Relative segment, address: 8AEE - 8C2D (0x140 bytes), align: 1
  Segment part 2.             Intra module refs:   USS_computeDeltaTOF_estimate
           LOCAL                   ADDRESS         
           =====                   =======         
           USS_generateWindow      8AEE 
               calls direct
    -------------------------------------------------------------------------
<CODE> 1 (was CODE)
  Relative segment, address: D664 - D66B (0x8 bytes), align: 1
  Segment part 3.             Intra module refs:   USS_generateWindow
    -------------------------------------------------------------------------
<CODE> 1 (was CODE)
  Relative segment, address: D292 - D2A3 (0x12 bytes), align: 1
  Segment part 4.             Intra module refs:   USS_generateWindow
    -------------------------------------------------------------------------
<CODE> 1 (was CODE)
  Relative segment, address: 8392 - 851F (0x18e bytes), align: 1
  Segment part 11.            Intra module refs:   USS_computeDeltaTOF_estimate
           LOCAL                   ADDRESS         
           =====                   =======         
           USS_runSampleCorrection
                                   8392 
               calls direct
    -------------------------------------------------------------------------
<CODE> 1 (was CODE)
  Relative segment, address: CB1E - CB45 (0x28 bytes), align: 1
  Segment part 12.            Intra module refs:   USS_runSampleCorrection
    -------------------------------------------------------------------------
<CODE> 1 (was CODE)
  Relative segment, address: CE1E - CE3D (0x20 bytes), align: 1
  Segment part 13.            Intra module refs:   USS_runSampleCorrection
    -------------------------------------------------------------------------
<CODE> 1 (was CODE)
  Relative segment, address: D3EC - D3F9 (0xe bytes), align: 1
  Segment part 14.            Intra module refs:   Segment part 13
                                                   USS_runSampleCorrection
    -------------------------------------------------------------------------
<CODE> 1 (was CODE)
  Relative segment, address: D4B0 - D4BD (0xe bytes), align: 1
  Segment part 15.            Intra module refs:   USS_runSampleCorrection

    -------------------------------------------------------------------------
  LIBRARY MODULE, NAME : USS_computeVolumeFlowRate_water

  SEGMENTS IN THE MODULE
  ======================
DATA16_AN
  Relative segment, address: 04D4 - 04D5 (0x2 bytes), align: 0
  Segment part 1. ROOT        Intra module refs:   USS_computeVolumeFlowRate_water
                                                   USS_iq31mpy_inline (USS_cosInterpolation)
                                                   USS_iq31mpy_inline (USS_math)
           ENTRY                   ADDRESS         REF BY
           =====                   =======         ======
           _A_MPYS32L_L            04D4 
    -------------------------------------------------------------------------
DATA16_AN
  Relative segment, address: 04D6 - 04D7 (0x2 bytes), align: 0
  Segment part 2. ROOT        Intra module refs:   USS_computeVolumeFlowRate_water
                                                   USS_iq31mpy_inline (USS_cosInterpolation)
                                                   USS_iq31mpy_inline (USS_math)
           ENTRY                   ADDRESS         REF BY
           =====                   =======         ======
           _A_MPYS32H_L            04D6 
    -------------------------------------------------------------------------
DATA16_AN
  Relative segment, address: 04E0 - 04E1 (0x2 bytes), align: 0
  Segment part 3. ROOT        Intra module refs:   USS_computeVolumeFlowRate_water
                                                   USS_iq31Div (USS_math)
                                                   USS_iq31mpy_inline (USS_cosInterpolation)
                                                   USS_iq31mpy_inline (USS_math)
           ENTRY                   ADDRESS         REF BY
           =====                   =======         ======
           _A_OP2L_L               04E0 
    -------------------------------------------------------------------------
DATA16_AN
  Relative segment, address: 04E2 - 04E3 (0x2 bytes), align: 0
  Segment part 4. ROOT        Intra module refs:   USS_computeVolumeFlowRate_water
                                                   USS_iq31Div (USS_math)
                                                   USS_iq31mpy_inline (USS_cosInterpolation)
                                                   USS_iq31mpy_inline (USS_math)
           ENTRY                   ADDRESS         REF BY
           =====                   =======         ======
           _A_OP2H_L               04E2 
    -------------------------------------------------------------------------
DATA16_AN
  Relative segment, address: 04E8 - 04E9 (0x2 bytes), align: 0
  Segment part 5. ROOT        Intra module refs:   USS_computeVolumeFlowRate_water
                                                   USS_iq31Div (USS_math)
                                                   USS_iq31mpy_inline (USS_cosInterpolation)
                                                   USS_iq31mpy_inline (USS_math)
           ENTRY                   ADDRESS         REF BY
           =====                   =======         ======
           _A_RES2_L               04E8 
    -------------------------------------------------------------------------
DATA16_AN
  Relative segment, address: 04EA - 04EB (0x2 bytes), align: 0
  Segment part 6. ROOT        Intra module refs:   USS_computeVolumeFlowRate_water
                                                   USS_iq31Div (USS_math)
                                                   USS_iq31mpy_inline (USS_cosInterpolation)
                                                   USS_iq31mpy_inline (USS_math)
           ENTRY                   ADDRESS         REF BY
           =====                   =======         ======
           _A_RES3_L               04EA 
    -------------------------------------------------------------------------
<CODE> 1 (was CODE)
  Relative segment, address: B046 - B0C7 (0x82 bytes), align: 1
  Segment part 9.
           ENTRY                   ADDRESS         REF BY
           =====                   =======         ======
           USS_computeVolumeFlowRate_water
                                   B046            Segment part 11 (USS_run)
               calls direct

    -------------------------------------------------------------------------
  LIBRARY MODULE, NAME : USS_cosInterpolation

  SEGMENTS IN THE MODULE
  ======================
<CODE> 1 (was CODE)
  Relative segment, address: CAA4 - CACD (0x2a bytes), align: 1
  Segment part 9.             Intra module refs:   USS_cosInterpolation
           LOCAL                   ADDRESS         
           =====                   =======         
           USS_iq31mpy_inline      CAA4 
    -------------------------------------------------------------------------
<CODE> 1 (was CODE)
  Relative segment, address: AFC2 - B045 (0x84 bytes), align: 1
  Segment part 10.            Intra module refs:   USS_cosInterpolation
           LOCAL                   ADDRESS         
           =====                   =======         
           USS_generateOmega       AFC2 
               calls direct
    -------------------------------------------------------------------------
<CODE> 1 (was CODE)
  Relative segment, address: AD0A - AD97 (0x8e bytes), align: 1
  Segment part 11.
           ENTRY                   ADDRESS         REF BY
           =====                   =======         ======
           USS_cosInterpolation    AD0A            USS_computeDeltaTOF_estimate (USS_computeDeltaTOF_estimate)
               calls direct

    -------------------------------------------------------------------------
  LIBRARY MODULE, NAME : USS_filter

  SEGMENTS IN THE MODULE
  ======================
<CODE> 1 (was CODE)
  Relative segment, address: B1C4 - B23F (0x7c bytes), align: 1
  Segment part 2.
           ENTRY                   ADDRESS         REF BY
           =====                   =======         ======
           USS_filter              B1C4            Segment part 13 (USS_run)
               calls direct
    -------------------------------------------------------------------------
<CODE> 1 (was CODE)
  Relative segment, address: D590 - D599 (0xa bytes), align: 1
  Segment part 3.             Intra module refs:   USS_filter
    -------------------------------------------------------------------------
<CODE> 1 (was CODE)
  Relative segment, address: D5A4 - D5AD (0xa bytes), align: 1
  Segment part 4.             Intra module refs:   USS_filter

    -------------------------------------------------------------------------
  LIBRARY MODULE, NAME : USS_init

  SEGMENTS IN THE MODULE
  ======================
<CODE> 1 (was CODE)
  Relative segment, address: 62F2 - 6759 (0x468 bytes), align: 1
  Segment part 2.
           ENTRY                   ADDRESS         REF BY
           =====                   =======         ======
           USS_init                62F2            USS_initAlgorithms (ussSwLibAlgorithms)
               calls direct
    -------------------------------------------------------------------------
<CODE> 1 (was CODE)
  Relative segment, address: CD9C - CDBD (0x22 bytes), align: 1
  Segment part 3.             Intra module refs:   USS_init
    -------------------------------------------------------------------------
<CODE> 1 (was CODE)
  Relative segment, address: D2DA - D2DD (0x4 bytes), align: 1
  Segment part 4.             Intra module refs:   USS_init
    -------------------------------------------------------------------------
<CODE> 1 (was CODE)
  Relative segment, address: D2DE - D2E3 (0x6 bytes), align: 1
  Segment part 5.             Intra module refs:   Segment part 4
                                                   USS_init
    -------------------------------------------------------------------------
<CODE> 1 (was CODE)
  Relative segment, address: D2E4 - D2EB (0x8 bytes), align: 1
  Segment part 6.             Intra module refs:   Segment part 5
                                                   USS_init
    -------------------------------------------------------------------------
<CODE> 1 (was CODE)
  Relative segment, address: C974 - C99F (0x2c bytes), align: 1
  Segment part 7.             Intra module refs:   USS_init

    -------------------------------------------------------------------------
  LIBRARY MODULE, NAME : USS_lea

  SEGMENTS IN THE MODULE
  ======================
DATA16_AN
  Relative segment, address: 0A84 - 0A87 (0x4 bytes), align: 0
  Segment part 1. ROOT        Intra module refs:   USS_lea_init
           ENTRY                   ADDRESS         REF BY
           =====                   =======         ======
           _A_LEACNF0_W0           0A84 
    -------------------------------------------------------------------------
DATA16_AN
  Relative segment, address: 0A88 - 0A8B (0x4 bytes), align: 0
  Segment part 2. ROOT        Intra module refs:   USS_lea_init
                                                   USS_lea_invokeCommand (USS_math)
                                                   USS_lea_invokeCommand (USS_support_lea)
           ENTRY                   ADDRESS         REF BY
           =====                   =======         ======
           _A_LEACNF1_W0           0A88 
    -------------------------------------------------------------------------
DATA16_AN
  Relative segment, address: 0A8C - 0A8F (0x4 bytes), align: 0
  Segment part 3. ROOT        Intra module refs:   USS_lea_init
           ENTRY                   ADDRESS         REF BY
           =====                   =======         ======
           _A_LEACNF2_W0           0A8C 
    -------------------------------------------------------------------------
DATA16_AN
  Relative segment, address: 0A94 - 0A97 (0x4 bytes), align: 0
  Segment part 4. ROOT        Intra module refs:   USS_lea_init
           ENTRY                   ADDRESS         REF BY
           =====                   =======         ======
           _A_LEAMT_W0             0A94 
    -------------------------------------------------------------------------
DATA16_AN
  Relative segment, address: 0A9C - 0A9F (0x4 bytes), align: 0
  Segment part 5. ROOT        Intra module refs:   USS_lea_init
           ENTRY                   ADDRESS         REF BY
           =====                   =======         ======
           _A_LEACMCTL_W0          0A9C 
    -------------------------------------------------------------------------
DATA16_AN
  Relative segment, address: 0AC0 - 0AC3 (0x4 bytes), align: 0
  Segment part 6. ROOT        Intra module refs:   USS_lea_init
           ENTRY                   ADDRESS         REF BY
           =====                   =======         ======
           _A_LEAPMCTL_W0          0AC0 
    -------------------------------------------------------------------------
DATA16_AN
  Relative segment, address: 0AC4 - 0AC7 (0x4 bytes), align: 0
  Segment part 7. ROOT        Intra module refs:   USS_lea_init
                                                   USS_lea_invokeCommand (USS_math)
                                                   USS_lea_invokeCommand (USS_support_lea)
           ENTRY                   ADDRESS         REF BY
           =====                   =======         ======
           _A_LEAPMDST_W0          0AC4 
    -------------------------------------------------------------------------
DATA16_AN
  Relative segment, address: 0AC8 - 0ACB (0x4 bytes), align: 0
  Segment part 8. ROOT        Intra module refs:   USS_lea_init
                                                   USS_lea_invokeCommand (USS_math)
                                                   USS_lea_invokeCommand (USS_support_lea)
           ENTRY                   ADDRESS         REF BY
           =====                   =======         ======
           _A_LEAPMS1_W0           0AC8 
    -------------------------------------------------------------------------
DATA16_AN
  Relative segment, address: 0ACC - 0ACF (0x4 bytes), align: 0
  Segment part 9. ROOT        Intra module refs:   USS_lea_init
                                                   USS_lea_invokeCommand (USS_math)
                                                   USS_lea_invokeCommand (USS_support_lea)
           ENTRY                   ADDRESS         REF BY
           =====                   =======         ======
           _A_LEAPMS0_W0           0ACC 
    -------------------------------------------------------------------------
DATA16_AN
  Relative segment, address: 0AF4 - 0AF7 (0x4 bytes), align: 0
  Segment part 10. ROOT       Intra module refs:   USS_lea_init
           ENTRY                   ADDRESS         REF BY
           =====                   =======         ======
           _A_LEAIE_W0             0AF4 
    -------------------------------------------------------------------------
DATA20_Z
  Relative segment, address: 1D2E - 1D2F (0x2 bytes), align: 1
  Segment part 12.            Intra module refs:   USS_lea_init
           ENTRY                   ADDRESS         REF BY
           =====                   =======         ======
           USS_LEA_IFG             1D2E            USS_LEA_ISR (USS_Lib_HAL)
                                                   USS_lea_invokeCommand (USS_math)
                                                   USS_lea_invokeCommand (USS_support_lea)
    -------------------------------------------------------------------------
LEARAM
  Relative segment, address: 2C00 - 2C0B (0xc bytes), align: 2
  Segment part 13.
           ENTRY                   ADDRESS         REF BY
           =====                   =======         ======
           USS_lea_params          2C00            Segment part 33 (USS_support_lea)
                                                   USS_addSamples (USS_support_lea)
                                                   USS_copy (USS_support_lea)
                                                   USS_copyArrayLeft (USS_support_lea)
                                                   USS_copyArrayRight (USS_support_lea)
                                                   USS_corr3 (USS_support_lea)
                                                   USS_fir (USS_support_lea)
                                                   USS_runWindow (USS_support_lea)
                                                   USS_zeroInit (USS_support_lea)
    -------------------------------------------------------------------------
LEARAM
  Relative segment, address: 2C0C - 2C17 (0xc bytes), align: 2
  Segment part 14.
           ENTRY                   ADDRESS         REF BY
           =====                   =======         ======
           USS_lea_scratch         2C0C            Segment part 33 (USS_support_lea)
                                                   USS_corr3 (USS_support_lea)
    -------------------------------------------------------------------------
<CODE> 1 (was CODE)
  Relative segment, address: B924 - B97F (0x5c bytes), align: 1
  Segment part 15.
           ENTRY                   ADDRESS         REF BY
           =====                   =======         ======
           USS_lea_init            B924            USS_init (USS_init)

    -------------------------------------------------------------------------
  LIBRARY MODULE, NAME : USS_math

  SEGMENTS IN THE MODULE
  ======================
DATA16_AN
  Relative segment, address: 0AD0 - 0AD3 (0x4 bytes), align: 0
  Segment part 5. ROOT        Intra module refs:   USS_lea_invokeCommand
                                                   USS_lea_invokeCommand (USS_support_lea)
           ENTRY                   ADDRESS         REF BY
           =====                   =======         ======
           _A_LEAPMCB_W0           0AD0 
    -------------------------------------------------------------------------
DATA16_AN
  Relative segment, address: 04D0 - 04D1 (0x2 bytes), align: 0
  Segment part 6. ROOT        Intra module refs:   USS_iq31Div
           ENTRY                   ADDRESS         REF BY
           =====                   =======         ======
           _A_MPY32L_L             04D0 
    -------------------------------------------------------------------------
DATA16_AN
  Relative segment, address: 04D2 - 04D3 (0x2 bytes), align: 0
  Segment part 7. ROOT        Intra module refs:   USS_iq31Div
           ENTRY                   ADDRESS         REF BY
           =====                   =======         ======
           _A_MPY32H_L             04D2 
    -------------------------------------------------------------------------
<CODE> 1 (was CODE)
  Relative segment, address: C0D6 - C11D (0x48 bytes), align: 1
  Segment part 17.            Intra module refs:   Segment part 27
                                                   USS_iq30Atan2
                                                   USS_iq31Div
           LOCAL                   ADDRESS         
           =====                   =======         
           USS_lea_invokeCommand   C0D6 
    -------------------------------------------------------------------------
<CODE> 1 (was CODE)
  Relative segment, address: CA7A - CAA3 (0x2a bytes), align: 1
  Segment part 18.            Intra module refs:   Segment part 23
                                                   Segment part 26
                                                   USS_iq30Atan2
           LOCAL                   ADDRESS         
           =====                   =======         
           USS_iq31mpy_inline      CA7A 
    -------------------------------------------------------------------------
LEARAM
  Relative segment, address: 2C18 - 2C1F (0x8 bytes), align: 2
  Segment part 16.            Intra module refs:   Segment part 26
                                                   USS_iq30Atan2
                                                   USS_iq31Div
           ENTRY                   ADDRESS         REF BY
           =====                   =======         ======
           USS_lea_poly_params     2C18 
    -------------------------------------------------------------------------
<CODE> 1 (was CODE)
  Relative segment, address: A8D4 - A975 (0xa2 bytes), align: 1
  Segment part 19.            Intra module refs:   USS_iq30Atan2
           ENTRY                   ADDRESS         REF BY
           =====                   =======         ======
           USS_iq31Div             A8D4            USS_generateOmega (USS_cosInterpolation)
               calls direct
    -------------------------------------------------------------------------
<CODE> 1 (was CODE)
  Relative segment, address: D5FE - D607 (0xa bytes), align: 1
  Segment part 22.            Intra module refs:   Segment part 27
                                                   USS_iq30Atan2
                                                   USS_iq31Div
    -------------------------------------------------------------------------
<CODE> 1 (was CODE)
  Relative segment, address: D608 - D611 (0xa bytes), align: 1
  Segment part 24.            Intra module refs:   USS_iq30Atan2
                                                   USS_iq31Div
    -------------------------------------------------------------------------
<CODE> 1 (was CODE)
  Relative segment, address: C894 - C8C1 (0x2e bytes), align: 1
  Segment part 20.
           ENTRY                   ADDRESS         REF BY
           =====                   =======         ======
           USS_iq31toiq29Asin      C894            USS_generateOmega (USS_cosInterpolation)
               calls direct
    -------------------------------------------------------------------------
<CODE> 1 (was CODE)
  Relative segment, address: D560 - D56B (0xc bytes), align: 1
  Segment part 23.            Intra module refs:   USS_iq30Atan2
                                                   USS_iq31toiq29Asin
    -------------------------------------------------------------------------
<CODE> 1 (was CODE)
  Relative segment, address: D46A - D477 (0xe bytes), align: 1
  Segment part 26.            Intra module refs:   USS_iq31Cos
                                                   USS_iq31toiq29Asin
    -------------------------------------------------------------------------
<CODE> 1 (was CODE)
  Relative segment, address: D5F4 - D5FD (0xa bytes), align: 1
  Segment part 27.            Intra module refs:   USS_iq31Cos
                                                   USS_iq31toiq29Asin
    -------------------------------------------------------------------------
<CODE> 1 (was CODE)
  Relative segment, address: 9A0E - 9B07 (0xfa bytes), align: 1
  Segment part 21.
           ENTRY                   ADDRESS         REF BY
           =====                   =======         ======
           USS_iq30Atan2           9A0E            USS_cosInterpolation (USS_cosInterpolation)
               calls direct
    -------------------------------------------------------------------------
<CODE> 1 (was CODE)
  Relative segment, address: CC8C - CCAD (0x22 bytes), align: 1
  Segment part 25.
           ENTRY                   ADDRESS         REF BY
           =====                   =======         ======
           USS_iq31Cos             CC8C            USS_generateOmega (USS_cosInterpolation)
               calls direct

    -------------------------------------------------------------------------
  LIBRARY MODULE, NAME : USS_run

  SEGMENTS IN THE MODULE
  ======================
<CODE> 1 (was CODE)
  Relative segment, address: 9F58 - 9F85 (0x2e bytes), align: 1
  Segment part 2.
           ENTRY                   ADDRESS         REF BY
           =====                   =======         ======
           USS_run                 9F58            privateRunAlg (ussSwLibAlgorithms)
               calls direct
    -------------------------------------------------------------------------
<CODE> 1 (was CODE)
  Relative segment, address: 9F86 - 9F8B (0x6 bytes), align: 1
  Segment part 3.             Intra module refs:   USS_run
    -------------------------------------------------------------------------
<CODE> 1 (was CODE)
  Relative segment, address: 9F8C - 9F9B (0x10 bytes), align: 1
  Segment part 10.            Intra module refs:   USS_run
    -------------------------------------------------------------------------
<CODE> 1 (was CODE)
  Relative segment, address: 9F9C - 9FAB (0x10 bytes), align: 1
  Segment part 11.            Intra module refs:   USS_run
    -------------------------------------------------------------------------
<CODE> 1 (was CODE)
  Relative segment, address: 9FAC - 9FCB (0x20 bytes), align: 1
  Segment part 12.            Intra module refs:   USS_run
    -------------------------------------------------------------------------
<CODE> 1 (was CODE)
  Relative segment, address: 9FCC - 9FE7 (0x1c bytes), align: 1
  Segment part 13.            Intra module refs:   USS_run
    -------------------------------------------------------------------------
<CODE> 1 (was CODE)
  Relative segment, address: 9FE8 - A025 (0x3e bytes), align: 1
  Segment part 14.            Intra module refs:   USS_run

    -------------------------------------------------------------------------
  LIBRARY MODULE, NAME : USS_support_lea

  SEGMENTS IN THE MODULE
  ======================
DATA16_AN
  Relative segment, address: 04C6 - 04C7 (0x2 bytes), align: 0
  Segment part 7. ROOT        Intra module refs:   USS_corr3
           ENTRY                   ADDRESS         REF BY
           =====                   =======         ======
           _A_MACS_L               04C6 
    -------------------------------------------------------------------------
DATA16_AN
  Relative segment, address: 04CA - 04CB (0x2 bytes), align: 0
  Segment part 9. ROOT        Intra module refs:   USS_corr3
           ENTRY                   ADDRESS         REF BY
           =====                   =======         ======
           _A_RESLO_L              04CA 
    -------------------------------------------------------------------------
<CODE> 1 (was CODE)
  Relative segment, address: C11E - C165 (0x48 bytes), align: 1
  Segment part 13.            Intra module refs:   Segment part 26
           LOCAL                   ADDRESS         
           =====                   =======         
           USS_lea_invokeCommand   C11E 
    -------------------------------------------------------------------------
<CODE> 1 (was CODE)
  Relative segment, address: 6F6C - 6F8D (0x22 bytes), align: 1
  Segment part 14.
           ENTRY                   ADDRESS         REF BY
           =====                   =======         ======
           USS_zeroInit            6F6C            USS_filter (USS_filter)
               calls direct
    -------------------------------------------------------------------------
<CODE> 1 (was CODE)
  Relative segment, address: 6F8E - 6F9B (0xe bytes), align: 1
  Segment part 15.            Intra module refs:   USS_copy
                                                   USS_copyArrayLeft
    -------------------------------------------------------------------------
<CODE> 1 (was CODE)
  Relative segment, address: 6F9C - 6FAB (0x10 bytes), align: 1
  Segment part 16.            Intra module refs:   Segment part 15
                                                   USS_zeroInit
    -------------------------------------------------------------------------
<CODE> 1 (was CODE)
  Relative segment, address: 6FAC - 6FB1 (0x6 bytes), align: 1
  Segment part 17.            Intra module refs:   Segment part 16
    -------------------------------------------------------------------------
<CODE> 1 (was CODE)
  Relative segment, address: 6FB2 - 6FBF (0xe bytes), align: 1
  Segment part 18.            Intra module refs:   Segment part 15
                                                   USS_zeroInit
    -------------------------------------------------------------------------
<CODE> 1 (was CODE)
  Relative segment, address: 6FC0 - 6FD7 (0x18 bytes), align: 1
  Segment part 19.
           ENTRY                   ADDRESS         REF BY
           =====                   =======         ======
           USS_copy                6FC0            privateRunAlg (ussSwLibAlgorithms)
               calls direct
    -------------------------------------------------------------------------
<CODE> 1 (was CODE)
  Relative segment, address: 6FD8 - 6FFB (0x24 bytes), align: 1
  Segment part 20.
           ENTRY                   ADDRESS         REF BY
           =====                   =======         ======
           USS_copyArrayLeft       6FD8            privatePadCaptures (ussSwLibAlgorithms)
               calls direct
    -------------------------------------------------------------------------
<CODE> 1 (was CODE)
  Relative segment, address: 6FFC - 7045 (0x4a bytes), align: 1
  Segment part 21.
           ENTRY                   ADDRESS         REF BY
           =====                   =======         ======
           USS_copyArrayRight      6FFC            Segment part 4 (USS_filter)
               calls direct
    -------------------------------------------------------------------------
<CODE> 1 (was CODE)
  Relative segment, address: 7046 - 7051 (0xc bytes), align: 1
  Segment part 22.            Intra module refs:   Segment part 16
                                                   USS_copyArrayRight
    -------------------------------------------------------------------------
<CODE> 1 (was CODE)
  Relative segment, address: 7052 - 707F (0x2e bytes), align: 1
  Segment part 23.
           ENTRY                   ADDRESS         REF BY
           =====                   =======         ======
           USS_addSamples          7052            privateAccumulateCaptures (ussSwLibAlgorithms)
               calls direct
    -------------------------------------------------------------------------
<CODE> 1 (was CODE)
  Relative segment, address: 7080 - 7095 (0x16 bytes), align: 1
  Segment part 24.            Intra module refs:   USS_addSamples
                                                   USS_fir
    -------------------------------------------------------------------------
<CODE> 1 (was CODE)
  Relative segment, address: 7096 - 709D (0x8 bytes), align: 1
  Segment part 25.            Intra module refs:   Segment part 24
                                                   USS_corr3
                                                   USS_runWindow
    -------------------------------------------------------------------------
<CODE> 1 (was CODE)
  Relative segment, address: 709E - 70A3 (0x6 bytes), align: 1
  Segment part 26.            Intra module refs:   Segment part 16
                                                   Segment part 25
                                                   Segment part 30
    -------------------------------------------------------------------------
<CODE> 1 (was CODE)
  Relative segment, address: 70A4 - 70BD (0x1a bytes), align: 1
  Segment part 28.
           ENTRY                   ADDRESS         REF BY
           =====                   =======         ======
           USS_addOffset           70A4            Segment part 26 (ussSwLibAlgorithms)
               calls direct
    -------------------------------------------------------------------------
<CODE> 1 (was CODE)
  Relative segment, address: 70BE - 70D1 (0x14 bytes), align: 1
  Segment part 29.            Intra module refs:   USS_addOffset
                                                   USS_scaleSamples
    -------------------------------------------------------------------------
<CODE> 1 (was CODE)
  Relative segment, address: 70D2 - 70DB (0xa bytes), align: 1
  Segment part 30.            Intra module refs:   Segment part 29
                                                   USS_copyArrayRight
    -------------------------------------------------------------------------
<CODE> 1 (was CODE)
  Relative segment, address: 70DC - 70E5 (0xa bytes), align: 1
  Segment part 31.            Intra module refs:   USS_addOffset
                                                   USS_copyArrayRight
                                                   USS_scaleSamples
    -------------------------------------------------------------------------
<CODE> 1 (was CODE)
  Relative segment, address: 70E6 - 7103 (0x1e bytes), align: 1
  Segment part 32.
           ENTRY                   ADDRESS         REF BY
           =====                   =======         ======
           USS_scaleSamples        70E6            privateScaleCaptures (ussSwLibAlgorithms)
               calls direct
    -------------------------------------------------------------------------
<CODE> 1 (was CODE)
  Relative segment, address: 7104 - 711D (0x1a bytes), align: 1
  Segment part 33.            Intra module refs:   USS_addOffset
                                                   USS_scaleSamples
    -------------------------------------------------------------------------
<CODE> 1 (was CODE)
  Relative segment, address: 711E - 7133 (0x16 bytes), align: 1
  Segment part 34.            Intra module refs:   USS_addOffset
                                                   USS_scaleSamples
    -------------------------------------------------------------------------
<CODE> 1 (was CODE)
  Relative segment, address: 7134 - 716B (0x38 bytes), align: 1
  Segment part 35.
           ENTRY                   ADDRESS         REF BY
           =====                   =======         ======
           USS_runWindow           7134            USS_computeDeltaTOF_estimate (USS_computeDeltaTOF_estimate)
               calls direct
    -------------------------------------------------------------------------
<CODE> 1 (was CODE)
  Relative segment, address: 716C - 7173 (0x8 bytes), align: 1
  Segment part 36.            Intra module refs:   Segment part 24
                                                   Segment part 29
                                                   USS_corr3
                                                   USS_runWindow
    -------------------------------------------------------------------------
<CODE> 1 (was CODE)
  Relative segment, address: 7174 - 718D (0x1a bytes), align: 1
  Segment part 37.
           ENTRY                   ADDRESS         REF BY
           =====                   =======         ======
           USS_runParabolicInterpolation
                                   7174            USS_computeAbsTOF_lobe_search (USS_computeAbsTOF_lobe)
                                                   USS_computeAbsTOF_lobe_track (USS_computeAbsTOF_lobe)
               calls direct
    -------------------------------------------------------------------------
<CODE> 1 (was CODE)
  Relative segment, address: 718E - 7197 (0xa bytes), align: 1
  Segment part 40.            Intra module refs:   Segment part 18
                                                   Segment part 22
                                                   Segment part 31
                                                   Segment part 34
                                                   Segment part 36
                                                   Segment part 41
                                                   USS_addSamples
                                                   USS_copyArrayRight
                                                   USS_corr3
                                                   USS_fir
                                                   USS_runWindow
    -------------------------------------------------------------------------
<CODE> 1 (was CODE)
  Relative segment, address: 7198 - 71A1 (0xa bytes), align: 1
  Segment part 41.            Intra module refs:   USS_copy
                                                   USS_copyArrayLeft
    -------------------------------------------------------------------------
<CODE> 1 (was CODE)
  Relative segment, address: 71A2 - 71D1 (0x30 bytes), align: 1
  Segment part 42.
           ENTRY                   ADDRESS         REF BY
           =====                   =======         ======
           USS_fir                 71A2            Segment part 3 (USS_filter)
               calls direct
    -------------------------------------------------------------------------
<CODE> 1 (was CODE)
  Relative segment, address: 71D2 - 71DF (0xe bytes), align: 1
  Segment part 43.            Intra module refs:   USS_addSamples
                                                   USS_fir
    -------------------------------------------------------------------------
<CODE> 1 (was CODE)
  Relative segment, address: 71E0 - 72F3 (0x114 bytes), align: 1
  Segment part 46.
           ENTRY                   ADDRESS         REF BY
           =====                   =======         ======
           USS_corr3               71E0            Segment part 15 (USS_computeDeltaTOF_estimate)
                                                   USS_computeDeltaTOF_estimate (USS_computeDeltaTOF_estimate)
               calls direct
    -------------------------------------------------------------------------
<CODE> 1 (was CODE)
  Relative segment, address: D5D6 - D5DF (0xa bytes), align: 1
  Segment part 47.            Intra module refs:   USS_corr3

    -------------------------------------------------------------------------
  LIBRARY MODULE, NAME : USS_updateADCParams

  SEGMENTS IN THE MODULE
  ======================
<CODE> 1 (was CODE)
  Relative segment, address: 90CA - 91DF (0x116 bytes), align: 1
  Segment part 2.
           ENTRY                   ADDRESS         REF BY
           =====                   =======         ======
           USS_updateADCParams     90CA            USS_updateClockRelativeError (ussSwLibAlgorithms)
               calls direct
    -------------------------------------------------------------------------
<CODE> 1 (was CODE)
  Relative segment, address: CD36 - CD57 (0x22 bytes), align: 1
  Segment part 3.             Intra module refs:   USS_updateADCParams
    -------------------------------------------------------------------------
<CODE> 1 (was CODE)
  Relative segment, address: D214 - D217 (0x4 bytes), align: 1
  Segment part 4.             Intra module refs:   USS_updateADCParams
    -------------------------------------------------------------------------
<CODE> 1 (was CODE)
  Relative segment, address: D218 - D21D (0x6 bytes), align: 1
  Segment part 5.             Intra module refs:   Segment part 4
                                                   USS_updateADCParams
    -------------------------------------------------------------------------
<CODE> 1 (was CODE)
  Relative segment, address: D21E - D225 (0x8 bytes), align: 1
  Segment part 6.             Intra module refs:   Segment part 4
                                                   Segment part 5
                                                   USS_updateADCParams

    -------------------------------------------------------------------------
  LIBRARY MODULE, NAME : ussSwLibAlgorithms

  SEGMENTS IN THE MODULE
  ======================
LEARAM
  Relative segment, address: 2C20 - 2C47 (0x28 bytes), align: 2
  Segment part 2.             Intra module refs:   USS_initAlgorithms
           ENTRY                   ADDRESS         REF BY
           =====                   =======         ======
           gFilterConstant         2C20 
    -------------------------------------------------------------------------
LEARAM
  Relative segment, address: 2C48 - 2C5F (0x18 bytes), align: 2
  Segment part 3.             Intra module refs:   USS_initAlgorithms
           ENTRY                   ADDRESS         REF BY
           =====                   =======         ======
           gHilbertFilterConstant
                                   2C48 
    -------------------------------------------------------------------------
DATA20_Z
  Relative segment, address: 1D30 - 1E2F (0x100 bytes), align: 1
  Segment part 4.             Intra module refs:   USS_initAlgorithms
                                                   USS_runAlgorithmsFixedPoint
                                                   USS_updateClockRelativeError
                                                   privatePadCaptures
                                                   privateRunAlg
           ENTRY                   ADDRESS         REF BY
           =====                   =======         ======
           gUSSAlgObject           1D30 
    -------------------------------------------------------------------------
DATA20_Z
  Relative segment, address: 24A6 - 24A6 (0x1 bytes), align: 0
  Segment part 5.             Intra module refs:   USS_initAlgorithms
                                                   privateRunAlg
           ENTRY                   ADDRESS         REF BY
           =====                   =======         ======
           state                   24A6 
    -------------------------------------------------------------------------
DATA20_Z
  Relative segment, address: 24A7 - 24A7 (0x1 bytes), align: 0
  Segment part 6.             Intra module refs:   USS_initAlgorithms
                                                   privateRunAlg
                                                   privateScaleCaptures
    -------------------------------------------------------------------------
DATA20_Z
  Relative segment, address: 24A8 - 24A8 (0x1 bytes), align: 0
  Segment part 7.             Intra module refs:   Segment part 24
                                                   USS_initAlgorithms
                                                   privatePadCaptures
    -------------------------------------------------------------------------
<CODE> 1 (was CODE)
  Relative segment, address: 6B6E - 6C7B (0x10e bytes), align: 1
  Segment part 8.             Intra module refs:   USS_initAlgorithms
           ENTRY                   ADDRESS         REF BY
           =====                   =======         ======
           USS_updateClockRelativeError
                                   6B6E 
               calls direct
    -------------------------------------------------------------------------
<CODE> 1 (was CODE)
  Relative segment, address: 6C7C - 6C83 (0x8 bytes), align: 1
  Segment part 9.             Intra module refs:   USS_initAlgorithms
                                                   USS_updateClockRelativeError
    -------------------------------------------------------------------------
<CODE> 1 (was CODE)
  Relative segment, address: 6C84 - 6C91 (0xe bytes), align: 1
  Segment part 10.            Intra module refs:   USS_updateClockRelativeError
    -------------------------------------------------------------------------
<CODE> 1 (was CODE)
  Relative segment, address: 6C92 - 6C9D (0xc bytes), align: 1
  Segment part 11.            Intra module refs:   USS_updateClockRelativeError
    -------------------------------------------------------------------------
<CODE> 1 (was CODE)
  Relative segment, address: 6C9E - 6F6B (0x2ce bytes), align: 1
  Segment part 12.
           ENTRY                   ADDRESS         REF BY
           =====                   =======         ======
           USS_initAlgorithms      6C9E            Handler_mtr_calibration_table_id (ussDCCommandHandlers)
                                                   USSLibGUIApp_Init (USSLibGUIApp)
                                                   USSLibGUIApp_ReInitialize (USSLibGUIApp)
               calls direct
    -------------------------------------------------------------------------
<CODE> 1 (was CODE)
  Relative segment, address: D416 - D423 (0xe bytes), align: 1
  Segment part 13.            Intra module refs:   USS_initAlgorithms
    -------------------------------------------------------------------------
<CODE> 1 (was CODE)
  Relative segment, address: D4BE - D4CB (0xe bytes), align: 1
  Segment part 14.            Intra module refs:   USS_initAlgorithms
                                                   USS_updateClockRelativeError
    -------------------------------------------------------------------------
<CODE> 1 (was CODE)
  Relative segment, address: D408 - D415 (0xe bytes), align: 1
  Segment part 15.            Intra module refs:   USS_initAlgorithms
                                                   USS_updateClockRelativeError
    -------------------------------------------------------------------------
<CODE> 1 (was CODE)
  Relative segment, address: D5AE - D5B7 (0xa bytes), align: 1
  Segment part 16.            Intra module refs:   Segment part 11
                                                   Segment part 40
                                                   USS_initAlgorithms
                                                   USS_updateClockRelativeError
                                                   privateGeneratePattern
    -------------------------------------------------------------------------
<CODE> 1 (was CODE)
  Relative segment, address: 5C50 - 5C5B (0xc bytes), align: 1
  Segment part 17.            Intra module refs:   USS_initAlgorithms
                                                   USS_updateClockRelativeError
    -------------------------------------------------------------------------
<CODE> 1 (was CODE)
  Relative segment, address: 5C5C - 5C61 (0x6 bytes), align: 1
  Segment part 18.            Intra module refs:   Segment part 17
                                                   Segment part 41
    -------------------------------------------------------------------------
<CODE> 1 (was CODE)
  Relative segment, address: 5C62 - 5CF9 (0x98 bytes), align: 1
  Segment part 19.            Intra module refs:   privateRunAlg
           ENTRY                   ADDRESS         REF BY
           =====                   =======         ======
           privatePadCaptures      5C62 
               calls direct
    -------------------------------------------------------------------------
<CODE> 1 (was CODE)
  Relative segment, address: 5CFA - 5D01 (0x8 bytes), align: 1
  Segment part 20.            Intra module refs:   privateRunDCOffsetCancelation
           ENTRY                   ADDRESS         REF BY
           =====                   =======         ======
           USS_getDNSPtr           5CFA            CommandHandler_transmitCaptures (ussDCCommandHandlers)
                                                   Testing_PostMeasurement_Update (testing)
    -------------------------------------------------------------------------
<CODE> 1 (was CODE)
  Relative segment, address: 5D02 - 5D05 (0x4 bytes), align: 1
  Segment part 21.            Intra module refs:   USS_getDNSPtr
                                                   USS_getUPSPtr
    -------------------------------------------------------------------------
<CODE> 1 (was CODE)
  Relative segment, address: 5D06 - 5D0B (0x6 bytes), align: 1
  Segment part 22.            Intra module refs:   Segment part 21
                                                   USS_getDNSPtr
                                                   USS_getUPSPtr
    -------------------------------------------------------------------------
<CODE> 1 (was CODE)
  Relative segment, address: 5D0C - 5D17 (0xc bytes), align: 1
  Segment part 23.            Intra module refs:   privateAccumulateCaptures
                                                   privateRunAlg
                                                   privateRunDCOffsetCancelation
                                                   privateScaleCaptures
           ENTRY                   ADDRESS         REF BY
           =====                   =======         ======
           USS_getUPSPtr           5D0C            CommandHandler_transmitCaptures (ussDCCommandHandlers)
                                                   Testing_PostMeasurement_Update (testing)
    -------------------------------------------------------------------------
<CODE> 1 (was CODE)
  Relative segment, address: 5D18 - 5D33 (0x1c bytes), align: 1
  Segment part 24.            Intra module refs:   USS_getDNSPtr
                                                   USS_getUPSPtr
    -------------------------------------------------------------------------
<CODE> 1 (was CODE)
  Relative segment, address: 5D34 - 5D81 (0x4e bytes), align: 1
  Segment part 25.            Intra module refs:   privateRunAlg
           LOCAL                   ADDRESS         
           =====                   =======         
           privateRunDCOffsetCancelation
                                   5D34 
               calls direct
    -------------------------------------------------------------------------
<CODE> 1 (was CODE)
  Relative segment, address: 5D82 - 5D91 (0x10 bytes), align: 1
  Segment part 26.            Intra module refs:   privateRunDCOffsetCancelation
    -------------------------------------------------------------------------
<CODE> 1 (was CODE)
  Relative segment, address: 5D92 - 5DEB (0x5a bytes), align: 1
  Segment part 27.            Intra module refs:   privateRunAlg
           LOCAL                   ADDRESS         
           =====                   =======         
           privateScaleCaptures    5D92 
               calls direct
    -------------------------------------------------------------------------
<CODE> 1 (was CODE)
  Relative segment, address: 5DEC - 5E09 (0x1e bytes), align: 1
  Segment part 28.            Intra module refs:   privateRunAlg
           LOCAL                   ADDRESS         
           =====                   =======         
           privateAccumulateCaptures
                                   5DEC 
               calls direct
    -------------------------------------------------------------------------
<CODE> 1 (was CODE)
  Relative segment, address: 5E0A - 5F61 (0x158 bytes), align: 1
  Segment part 29.            Intra module refs:   USS_runAlgorithmsFixedPoint
           LOCAL                   ADDRESS         
           =====                   =======         
           privateRunAlg           5E0A 
               calls direct
    -------------------------------------------------------------------------
<CODE> 1 (was CODE)
  Relative segment, address: 5F62 - 5FDD (0x7c bytes), align: 1
  Segment part 30.
           ENTRY                   ADDRESS         REF BY
           =====                   =======         ======
           USS_runAlgorithmsFixedPoint
                                   5F62            USSLibGUIApp_Engine (USSLibGUIApp)
               calls direct
    -------------------------------------------------------------------------
<CODE> 1 (was CODE)
  Relative segment, address: 5FDE - 60C7 (0xea bytes), align: 1
  Segment part 32.
           ENTRY                   ADDRESS         REF BY
           =====                   =======         ======
           USS_getResultsInFloat   5FDE            HMI_PostAlgorithm_Update (hmi)
               calls direct
    -------------------------------------------------------------------------
<CODE> 1 (was CODE)
  Relative segment, address: 60C8 - 60CD (0x6 bytes), align: 1
  Segment part 33.            Intra module refs:   USS_generateMonoDualToneBinaryPattern
                                                   USS_getResultsInFloat
                                                   USS_initAlgorithms
                                                   USS_updateClockRelativeError
    -------------------------------------------------------------------------
<CODE> 1 (was CODE)
  Relative segment, address: 60CE - 60D7 (0xa bytes), align: 1
  Segment part 34.            Intra module refs:   Segment part 33
                                                   Segment part 35
                                                   USS_initAlgorithms
                                                   USS_updateClockRelativeError
    -------------------------------------------------------------------------
<CODE> 1 (was CODE)
  Relative segment, address: 60D8 - 60F3 (0x1c bytes), align: 1
  Segment part 35.            Intra module refs:   USS_getResultsInFloat
    -------------------------------------------------------------------------
<CODE> 1 (was CODE)
  Relative segment, address: 60F4 - 617B (0x88 bytes), align: 1
  Segment part 36.            Intra module refs:   USS_generateMonoDualToneBinaryPattern
           ENTRY                   ADDRESS         REF BY
           =====                   =======         ======
           privateGeneratePattern
                                   60F4 
               calls direct
    -------------------------------------------------------------------------
<CODE> 1 (was CODE)
  Relative segment, address: 617C - 6181 (0x6 bytes), align: 1
  Segment part 37.            Intra module refs:   Segment part 39
                                                   USS_initAlgorithms
                                                   USS_updateClockRelativeError
                                                   privateGeneratePattern
    -------------------------------------------------------------------------
<CODE> 1 (was CODE)
  Relative segment, address: 6182 - 62BF (0x13e bytes), align: 1
  Segment part 38.
           ENTRY                   ADDRESS         REF BY
           =====                   =======         ======
           USS_generateMonoDualToneBinaryPattern
                                   6182            USSLibGUIApp_Init (USSLibGUIApp)
                                                   USSLibGUIApp_ReInitialize (USSLibGUIApp)
               calls direct
    -------------------------------------------------------------------------
<CODE> 1 (was CODE)
  Relative segment, address: 62C0 - 62CD (0xe bytes), align: 1
  Segment part 39.            Intra module refs:   USS_generateMonoDualToneBinaryPattern
    -------------------------------------------------------------------------
<CODE> 1 (was CODE)
  Relative segment, address: 62CE - 62E7 (0x1a bytes), align: 1
  Segment part 40.            Intra module refs:   USS_generateMonoDualToneBinaryPattern
    -------------------------------------------------------------------------
<CODE> 1 (was CODE)
  Relative segment, address: 62E8 - 62F1 (0xa bytes), align: 1
  Segment part 41.            Intra module refs:   USS_generateMonoDualToneBinaryPattern

    -------------------------------------------------------------------------
  LIBRARY MODULE, NAME : ussSwLibCommonAlgorithms

  SEGMENTS IN THE MODULE
  ======================
LIB_VERSION
  Relative segment, address: 00043FF8 - 00043FFF (0x8 bytes), align: 0
  Segment part 2. ROOT 
           ENTRY                   ADDRESS         REF BY
           =====                   =======         ======
           lib_version             00043FF8 
    -------------------------------------------------------------------------
<CODE> 1 (was CODE)
  Relative segment, address: B240 - B2B9 (0x7a bytes), align: 1
  Segment part 3.
           ENTRY                   ADDRESS         REF BY
           =====                   =======         ======
           commonValidateAlgorithmsConfiguration
                                   B240            USS_initAlgorithms (ussSwLibAlgorithms)
               calls direct
    -------------------------------------------------------------------------
<CODE> 1 (was CODE)
  Relative segment, address: A32E - A3E9 (0xbc bytes), align: 1
  Segment part 4.
           ENTRY                   ADDRESS         REF BY
           =====                   =======         ======
           commonGetPLLFreqInHz    A32E            Segment part 17 (ussSwLibAlgorithms)
                                                   USS_generateMonoDualToneBinaryPattern (ussSwLibAlgorithms)
    -------------------------------------------------------------------------
<CODE> 1 (was CODE)
  Relative segment, address: B808 - B86B (0x64 bytes), align: 1
  Segment part 5.             Intra module refs:   commonValidateAlgorithmsConfiguration
           ENTRY                   ADDRESS         REF BY
           =====                   =======         ======
           commonValidateMeterConstantConfiguration
                                   B808 

    *************************************************************************

  FILE NAME : C:\Git\msp430-uss-library\Library\src\examples\USS_Water_Demo\IAR\LPM\Obj\USS_userConfig.r43
  PROGRAM MODULE, NAME : USS_userConfig

  SEGMENTS IN THE MODULE
  ======================
DATA20_P
  Relative segment, address: 43E6 - 4409 (0x24 bytes), align: 1
  Segment part 2.             Intra module refs:   ussAlgorithmVolumeFlowObj
           ENTRY                   ADDRESS         REF BY
           =====                   =======         ======
           ussAlgorithmMeterConstCalib
                                   43E6 
    -------------------------------------------------------------------------
DATA20_P
  Relative segment, address: 440A - 440F (0x6 bytes), align: 1
  Segment part 3.             Intra module refs:   ussAlgConfig
           ENTRY                   ADDRESS         REF BY
           =====                   =======         ======
           ussAlgorithmVolumeFlowObj
                                   440A 
    -------------------------------------------------------------------------
DATA20_C
  Relative segment, address: D80C - DC0B (0x400 bytes), align: 1
  Segment part 4.             Intra module refs:   ussAlgConfig
           ENTRY                   ADDRESS         REF BY
           =====                   =======         ======
           gUSSAbsToFLUT           D80C 
    -------------------------------------------------------------------------
LEARAM
  Relative segment, address: 2C60 - 31D7 (0x578 bytes), align: 2
  Segment part 5.             Intra module refs:   ussCaptureConfig
           ENTRY                   ADDRESS         REF BY
           =====                   =======         ======
           gUSSLEATempMemBlock     2C60 
    -------------------------------------------------------------------------
LEARAM
  Relative segment, address: 31D8 - 31F7 (0x20 bytes), align: 2
  Segment part 6.             Intra module refs:   ussAlgConfig
           ENTRY                   ADDRESS         REF BY
           =====                   =======         ======
           gUSSLEARAMReservedBlock1
                                   31D8 
    -------------------------------------------------------------------------
LEARAM
  Relative segment, address: 31F8 - 34A3 (0x2ac bytes), align: 2
  Segment part 7.             Intra module refs:   ussAlgConfig
           ENTRY                   ADDRESS         REF BY
           =====                   =======         ======
           gUSSLEARAMReservedBlock2
                                   31F8 
    -------------------------------------------------------------------------
DATA20_P
  Relative segment, address: 4410 - 4E5F (0xa50 bytes), align: 1
  Segment part 8.             Intra module refs:   ussAlgConfig
           ENTRY                   ADDRESS         REF BY
           =====                   =======         ======
           gNVMemBlock             4410 
    -------------------------------------------------------------------------
LEARAM
  Relative segment, address: 34A4 - 3633 (0x190 bytes), align: 2
  Segment part 9.             Intra module refs:   ussAlgConfig
           ENTRY                   ADDRESS         REF BY
           =====                   =======         ======
           gUSSBinaryPattern       34A4 
    -------------------------------------------------------------------------
DATA20_P
  Relative segment, address: 4E60 - 4E8F (0x30 bytes), align: 1
  Segment part 10.            Intra module refs:   ussAlgConfig
           ENTRY                   ADDRESS         REF BY
           =====                   =======         ======
           gUSSHilbertCoeffs       4E60 
    -------------------------------------------------------------------------
DATA20_P
  Relative segment, address: 4E90 - 4E9B (0xc bytes), align: 1
  Segment part 11.            Intra module refs:   gUssSWConfig
           ENTRY                   ADDRESS         REF BY
           =====                   =======         ======
           ussSystemConfig         4E90 
    -------------------------------------------------------------------------
DATA20_P
  Relative segment, address: 4E9C - 4EAB (0x10 bytes), align: 1
  Segment part 12.            Intra module refs:   gUssSWConfig
           ENTRY                   ADDRESS         REF BY
           =====                   =======         ======
           ussMeterConfig          4E9C 
    -------------------------------------------------------------------------
DATA20_P
  Relative segment, address: 5042 - 5045 (0x4 bytes), align: 0
  Segment part 13.            Intra module refs:   ussPulseConfig
           ENTRY                   ADDRESS         REF BY
           =====                   =======         ======
           singDualToneConfig      5042            HMI_update_USSmeasurementConfig (hmi)
    -------------------------------------------------------------------------
DATA20_P
  Relative segment, address: 4EAC - 4EBD (0x12 bytes), align: 1
  Segment part 14.            Intra module refs:   ussMeasurementConfig
           ENTRY                   ADDRESS         REF BY
           =====                   =======         ======
           ussPulseConfig          4EAC 
    -------------------------------------------------------------------------
DATA20_P
  Relative segment, address: 4EBE - 4EDD (0x20 bytes), align: 1
  Segment part 15.            Intra module refs:   gUssSWConfig
           ENTRY                   ADDRESS         REF BY
           =====                   =======         ======
           ussMeasurementConfig    4EBE 
    -------------------------------------------------------------------------
DATA20_P
  Relative segment, address: 4EDE - 4EE7 (0xa bytes), align: 1
  Segment part 16.            Intra module refs:   gUssSWConfig
           ENTRY                   ADDRESS         REF BY
           =====                   =======         ======
           ussPLLConfig            4EDE 
    -------------------------------------------------------------------------
DATA20_P
  Relative segment, address: 5046 - 5047 (0x2 bytes), align: 0
  Segment part 17.            Intra module refs:   gUssSWConfig
           ENTRY                   ADDRESS         REF BY
           =====                   =======         ======
           ussInterruptConfig      5046 
    -------------------------------------------------------------------------
DATA20_P
  Relative segment, address: 4EE8 - 4F01 (0x1a bytes), align: 1
  Segment part 18.            Intra module refs:   gUssSWConfig
           ENTRY                   ADDRESS         REF BY
           =====                   =======         ======
           ussCaptureConfig        4EE8 
    -------------------------------------------------------------------------
DATA20_P
  Relative segment, address: 5048 - 5048 (0x1 bytes), align: 0
  Segment part 19.            Intra module refs:   gUssSWConfig
           ENTRY                   ADDRESS         REF BY
           =====                   =======         ======
           ussTriggerConfig        5048 
    -------------------------------------------------------------------------
DATA20_P
  Relative segment, address: 4F02 - 4F87 (0x86 bytes), align: 1
  Segment part 20.            Intra module refs:   gUssSWConfig
           ENTRY                   ADDRESS         REF BY
           =====                   =======         ======
           ussAlgConfig            4F02 
    -------------------------------------------------------------------------
DATA20_P
  Relative segment, address: 4F88 - 4FA9 (0x22 bytes), align: 1
  Segment part 21.
           ENTRY                   ADDRESS         REF BY
           =====                   =======         ======
           gUssSWConfig            4F88            ?Subroutine0 (USSLibGUIApp)
                                                   ?Subroutine10 (ussDCCommandHandlers)
                                                   CommandHandler_transmitCaptures (ussDCCommandHandlers)
                                                   HMI_PostAlgorithm_Update (hmi)
                                                   HMI_updateUSSParameters (hmi)
                                                   HMI_update_USSalgorithmsConfig (hmi)
                                                   HMI_update_USScaptureConfig (hmi)
                                                   HMI_update_USSmeasurementConfig (hmi)
                                                   HMI_update_USSpllConfiguration (hmi)
                                                   Handler_calib_linear_constants_id (ussDCCommandHandlers)
                                                   Handler_mtr_calibration_table_id (ussDCCommandHandlers)
                                                   Testing_PostMeasurement_Update (testing)
                                                   USSLibGUIApp_Engine (USSLibGUIApp)

    *************************************************************************

  FILE NAME : C:\Git\msp430-uss-library\Library\src\examples\USS_Water_Demo\IAR\LPM\Obj\ussDCCommandHandlers.r43
  PROGRAM MODULE, NAME : ussDCCommandHandlers

  SEGMENTS IN THE MODULE
  ======================
DATA20_Z
  Relative segment, address: 1E30 - 1E33 (0x4 bytes), align: 1
  Segment part 3.             Intra module refs:   CommandHandler_prepareForParamUpdate
                                                   CommandHandler_registerCmdListeners
                                                   CommandHandler_rxUpdate
                                                   Handler_app_version
                                                   Handler_f1_and_f2
                                                   Handler_mtr_calibration_table_id
                                                   processCommand
           ENTRY                   ADDRESS         REF BY
           =====                   =======         ======
           gRXUpdateFlag           1E30 
    -------------------------------------------------------------------------
DATA20_Z
  Relative segment, address: 1E34 - 1E9D (0x6a bytes), align: 1
  Segment part 4.             Intra module refs:   CommandHandler_calibUpdate
                                                   CommandHandler_getUserParamsPtr
                                                   CommandHandler_setAdvMtrCalibTableStatus
                                                   CommandHandler_setApplicationVersion
                                                   CommandHandler_transmitCaptures
                                                   CommandHandler_updateCalibParams
                                                   CommandHandler_updateParams
                                                   Handler_abs_tof_additional_id
                                                   Handler_adc_samp_freq_id
                                                   Handler_app_version
                                                   Handler_capture_duration_id
                                                   Handler_delta_tof_offset_id
                                                   Handler_f1_and_f2
                                                   Handler_gain_control_id
                                                   Handler_gap_pls_adc_start_id
                                                   Handler_gap_ups_dns_id
                                                   Handler_gap_ups_ups_id
                                                   Handler_lea_enable
                                                   Handler_meter_constant_id
                                                   Handler_mtr_calibration_table_id
                                                   Handler_num_pls_id
                                                   Handler_over_sampling_rate
                                                   Handler_param10_id
                                                   Handler_param1_id
                                                   Handler_param2_id
                                                   Handler_param3_id
                                                   Handler_param4_id
                                                   Handler_param5_id
                                                   Handler_param6_id
                                                   Handler_param7_id
                                                   Handler_param8_id
                                                   Handler_param9_id
                                                   Handler_pattern_opt
                                                   Handler_plot_abs_dns_id
                                                   Handler_plot_abs_ups_id
                                                   Handler_plot_dtof_id
                                                   Handler_plot_vol_id
                                                   Handler_req_app_req_captures
                                                   Handler_req_app_req_data
                                                   Handler_req_app_req_update
                                                   Handler_req_calibration_config_id
                                                   Handler_sig_samp_freq_id
                                                   Handler_xt2_freq_id
           ENTRY                   ADDRESS         REF BY
           =====                   =======         ======
           gCommandHandler         1E34 
    -------------------------------------------------------------------------
<CODE> 1 (was CODE)
  Relative segment, address: D6A4 - D6A9 (0x6 bytes), align: 1
  Segment part 5.
           ENTRY                   ADDRESS         REF BY
           =====                   =======         ======
           CommandHandler_getUserParamsPtr
                                   D6A4            HMI_Init (hmi)
                                                   Testing_GUIUpdate_PostUSSConfig (testing)
                                                   Testing_GUIUpdate_PreUSSConfig (testing)
    -------------------------------------------------------------------------
<CODE> 1 (was CODE)
  Relative segment, address: 7E22 - 8005 (0x1e4 bytes), align: 1
  Segment part 6.
           ENTRY                   ADDRESS         REF BY
           =====                   =======         ======
           CommandHandler_registerCmdListeners
                                   7E22            HMI_Init (hmi)
               calls direct
    -------------------------------------------------------------------------
<CODE> 1 (was CODE)
  Relative segment, address: B86C - B8C7 (0x5c bytes), align: 1
  Segment part 7.             Intra module refs:   ?Subroutine0
           LOCAL                   ADDRESS         
           =====                   =======         
           processCommand          B86C 
               calls direct
    -------------------------------------------------------------------------
<CODE> 1 (was CODE)
  Relative segment, address: D478 - D485 (0xe bytes), align: 1
  Segment part 8.             Intra module refs:   processCommand
           LOCAL                   ADDRESS         
           =====                   =======         
           ?Subroutine5            D478 
    -------------------------------------------------------------------------
<CODE> 1 (was CODE)
  Relative segment, address: D202 - D213 (0x12 bytes), align: 1
  Segment part 9.             Intra module refs:   CommandHandler_updateParams
           ENTRY                   ADDRESS         REF BY
           =====                   =======         ======
           CommandHandler_prepareForParamUpdate
                                   D202 
               calls direct
    -------------------------------------------------------------------------
<CODE> 1 (was CODE)
  Relative segment, address: BE32 - BE7F (0x4e bytes), align: 1
  Segment part 11.            Intra module refs:   CommandHandler_updateParams
           ENTRY                   ADDRESS         REF BY
           =====                   =======         ======
           CommandHandler_rxUpdate
                                   BE32 
               calls direct
    -------------------------------------------------------------------------
<CODE> 1 (was CODE)
  Relative segment, address: C4BC - C4F1 (0x36 bytes), align: 1
  Segment part 12.            Intra module refs:   CommandHandler_updateCalibParams
           ENTRY                   ADDRESS         REF BY
           =====                   =======         ======
           CommandHandler_calibUpdate
                                   C4BC 
               calls direct
    -------------------------------------------------------------------------
<CODE> 1 (was CODE)
  Relative segment, address: D494 - D4A1 (0xe bytes), align: 1
  Segment part 13.            Intra module refs:   CommandHandler_transmitCapturePackages
                                                   CommandHandler_transmitResults
                                                   CommandHandler_updateParams
           ENTRY                   ADDRESS         REF BY
           =====                   =======         ======
           CommandHandler_transmitPacket
                                   D494 
               calls direct
    -------------------------------------------------------------------------
<CODE> 1 (was CODE)
  Relative segment, address: 542C - 544F (0x24 bytes), align: 1
  Segment part 14.
           ENTRY                   ADDRESS         REF BY
           =====                   =======         ======
           CommandHandler_updateCalibParams
                                   542C            HMI_PreMeasurement_Update (hmi)
               calls direct
    -------------------------------------------------------------------------
<CODE> 1 (was CODE)
  Relative segment, address: 5450 - 54D9 (0x8a bytes), align: 1
  Segment part 15.
           ENTRY                   ADDRESS         REF BY
           =====                   =======         ======
           CommandHandler_updateParams
                                   5450            HMI_PreMeasurement_Update (hmi)
               calls direct
    -------------------------------------------------------------------------
<CODE> 1 (was CODE)
  Relative segment, address: 54DA - 5573 (0x9a bytes), align: 1
  Segment part 16.
           ENTRY                   ADDRESS         REF BY
           =====                   =======         ======
           CommandHandler_transmitResults
                                   54DA            HMI_PostAlgorithm_Update (hmi)
               calls direct
    -------------------------------------------------------------------------
<CODE> 1 (was CODE)
  Relative segment, address: 5574 - 5575 (0x2 bytes), align: 1
  Segment part 17.            Intra module refs:   CommandHandler_transmitResults
           LOCAL                   ADDRESS         
           =====                   =======         
           ?Subroutine7            5574 
    -------------------------------------------------------------------------
<CODE> 1 (was CODE)
  Relative segment, address: 5576 - 5581 (0xc bytes), align: 1
  Segment part 18.            Intra module refs:   ?Subroutine7
                                                   CommandHandler_transmitResults
    -------------------------------------------------------------------------
<CODE> 1 (was CODE)
  Relative segment, address: 5582 - 5659 (0xd8 bytes), align: 1
  Segment part 19.            Intra module refs:   CommandHandler_transmitCaptures
           ENTRY                   ADDRESS         REF BY
           =====                   =======         ======
           CommandHandler_transmitCapturePackages
                                   5582 
               calls direct
    -------------------------------------------------------------------------
<CODE> 1 (was CODE)
  Relative segment, address: 565A - 5669 (0x10 bytes), align: 1
  Segment part 20.            Intra module refs:   CommandHandler_transmitCapturePackages
           LOCAL                   ADDRESS         
           =====                   =======         
           ?Subroutine11           565A 
    -------------------------------------------------------------------------
<CODE> 1 (was CODE)
  Relative segment, address: 566A - 56DF (0x76 bytes), align: 1
  Segment part 21.
           ENTRY                   ADDRESS         REF BY
           =====                   =======         ======
           CommandHandler_transmitCaptures
                                   566A            HMI_PostMeasurement_Update (hmi)
               calls direct
    -------------------------------------------------------------------------
<CODE> 1 (was CODE)
  Relative segment, address: 56E0 - 56EB (0xc bytes), align: 1
  Segment part 22.            Intra module refs:   CommandHandler_registerCmdListeners
           LOCAL                   ADDRESS         
           =====                   =======         
           Handler_gap_pls_adc_start_id
                                   56E0 
               calls direct
    -------------------------------------------------------------------------
<CODE> 1 (was CODE)
  Relative segment, address: 56EC - 56F7 (0xc bytes), align: 1
  Segment part 23.            Intra module refs:   CommandHandler_registerCmdListeners
           LOCAL                   ADDRESS         
           =====                   =======         
           Handler_num_pls_id      56EC 
               calls direct
    -------------------------------------------------------------------------
<CODE> 1 (was CODE)
  Relative segment, address: 56F8 - 5703 (0xc bytes), align: 1
  Segment part 24.            Intra module refs:   CommandHandler_registerCmdListeners
           LOCAL                   ADDRESS         
           =====                   =======         
           Handler_gap_ups_dns_id
                                   56F8 
               calls direct
    -------------------------------------------------------------------------
<CODE> 1 (was CODE)
  Relative segment, address: 5704 - 570F (0xc bytes), align: 1
  Segment part 25.            Intra module refs:   CommandHandler_registerCmdListeners
           LOCAL                   ADDRESS         
           =====                   =======         
           Handler_gap_ups_ups_id
                                   5704 
               calls direct
    -------------------------------------------------------------------------
<CODE> 1 (was CODE)
  Relative segment, address: 5710 - 571D (0xe bytes), align: 1
  Segment part 26.            Intra module refs:   CommandHandler_registerCmdListeners
           LOCAL                   ADDRESS         
           =====                   =======         
           Handler_gain_control_id
                                   5710 
               calls direct
    -------------------------------------------------------------------------
<CODE> 1 (was CODE)
  Relative segment, address: 571E - 572B (0xe bytes), align: 1
  Segment part 27.            Intra module refs:   CommandHandler_registerCmdListeners
           LOCAL                   ADDRESS         
           =====                   =======         
           Handler_meter_constant_id
                                   571E 
               calls direct
    -------------------------------------------------------------------------
<CODE> 1 (was CODE)
  Relative segment, address: 572C - 5739 (0xe bytes), align: 1
  Segment part 28.            Intra module refs:   CommandHandler_registerCmdListeners
           LOCAL                   ADDRESS         
           =====                   =======         
           Handler_xt2_freq_id     572C 
               calls direct
    -------------------------------------------------------------------------
<CODE> 1 (was CODE)
  Relative segment, address: 573A - 5747 (0xe bytes), align: 1
  Segment part 29.            Intra module refs:   CommandHandler_registerCmdListeners
           LOCAL                   ADDRESS         
           =====                   =======         
           Handler_adc_samp_freq_id
                                   573A 
               calls direct
    -------------------------------------------------------------------------
<CODE> 1 (was CODE)
  Relative segment, address: 5748 - 5755 (0xe bytes), align: 1
  Segment part 30.            Intra module refs:   CommandHandler_registerCmdListeners
           LOCAL                   ADDRESS         
           =====                   =======         
           Handler_sig_samp_freq_id
                                   5748 
               calls direct
    -------------------------------------------------------------------------
<CODE> 1 (was CODE)
  Relative segment, address: 5756 - 5763 (0xe bytes), align: 1
  Segment part 31.            Intra module refs:   CommandHandler_registerCmdListeners
           LOCAL                   ADDRESS         
           =====                   =======         
           Handler_over_sampling_rate
                                   5756 
               calls direct
    -------------------------------------------------------------------------
<CODE> 1 (was CODE)
  Relative segment, address: 5764 - 5771 (0xe bytes), align: 1
  Segment part 32.            Intra module refs:   CommandHandler_registerCmdListeners
           LOCAL                   ADDRESS         
           =====                   =======         
           Handler_delta_tof_offset_id
                                   5764 
               calls direct
    -------------------------------------------------------------------------
<CODE> 1 (was CODE)
  Relative segment, address: 5772 - 577F (0xe bytes), align: 1
  Segment part 33.            Intra module refs:   CommandHandler_registerCmdListeners
           LOCAL                   ADDRESS         
           =====                   =======         
           Handler_abs_tof_additional_id
                                   5772 
               calls direct
    -------------------------------------------------------------------------
<CODE> 1 (was CODE)
  Relative segment, address: 5780 - 578D (0xe bytes), align: 1
  Segment part 34.            Intra module refs:   CommandHandler_registerCmdListeners
           LOCAL                   ADDRESS         
           =====                   =======         
           Handler_capture_duration_id
                                   5780 
               calls direct
    -------------------------------------------------------------------------
<CODE> 1 (was CODE)
  Relative segment, address: 578E - 579B (0xe bytes), align: 1
  Segment part 35.            Intra module refs:   CommandHandler_registerCmdListeners
           LOCAL                   ADDRESS         
           =====                   =======         
           Handler_param1_id       578E 
               calls direct
    -------------------------------------------------------------------------
<CODE> 1 (was CODE)
  Relative segment, address: 579C - 57A9 (0xe bytes), align: 1
  Segment part 36.            Intra module refs:   CommandHandler_registerCmdListeners
           LOCAL                   ADDRESS         
           =====                   =======         
           Handler_param2_id       579C 
               calls direct
    -------------------------------------------------------------------------
<CODE> 1 (was CODE)
  Relative segment, address: 57AA - 57B7 (0xe bytes), align: 1
  Segment part 37.            Intra module refs:   CommandHandler_registerCmdListeners
           LOCAL                   ADDRESS         
           =====                   =======         
           Handler_param3_id       57AA 
               calls direct
    -------------------------------------------------------------------------
<CODE> 1 (was CODE)
  Relative segment, address: 57B8 - 57C3 (0xc bytes), align: 1
  Segment part 38.            Intra module refs:   CommandHandler_registerCmdListeners
           LOCAL                   ADDRESS         
           =====                   =======         
           Handler_param4_id       57B8 
               calls direct
    -------------------------------------------------------------------------
<CODE> 1 (was CODE)
  Relative segment, address: 57C4 - 57CF (0xc bytes), align: 1
  Segment part 39.            Intra module refs:   CommandHandler_registerCmdListeners
           LOCAL                   ADDRESS         
           =====                   =======         
           Handler_param5_id       57C4 
               calls direct
    -------------------------------------------------------------------------
<CODE> 1 (was CODE)
  Relative segment, address: 57D0 - 57D3 (0x4 bytes), align: 1
  Segment part 40.            Intra module refs:   Handler_abs_tof_additional_id
                                                   Handler_adc_samp_freq_id
                                                   Handler_capture_duration_id
                                                   Handler_delta_tof_offset_id
                                                   Handler_gain_control_id
                                                   Handler_gap_pls_adc_start_id
                                                   Handler_gap_ups_dns_id
                                                   Handler_gap_ups_ups_id
                                                   Handler_lea_enable
                                                   Handler_meter_constant_id
                                                   Handler_num_pls_id
                                                   Handler_over_sampling_rate
                                                   Handler_param10_id
                                                   Handler_param1_id
                                                   Handler_param2_id
                                                   Handler_param3_id
                                                   Handler_param4_id
                                                   Handler_param5_id
                                                   Handler_param6_id
                                                   Handler_param7_id
                                                   Handler_param8_id
                                                   Handler_param9_id
                                                   Handler_pattern_opt
                                                   Handler_plot_abs_dns_id
                                                   Handler_plot_abs_ups_id
                                                   Handler_plot_dtof_id
                                                   Handler_plot_vol_id
                                                   Handler_req_app_req_captures
                                                   Handler_req_app_req_data
                                                   Handler_req_app_req_update
                                                   Handler_sig_samp_freq_id
                                                   Handler_xt2_freq_id
           LOCAL                   ADDRESS         
           =====                   =======         
           ?Subroutine0            57D0 
    -------------------------------------------------------------------------
<CODE> 1 (was CODE)
  Relative segment, address: 57D4 - 57D9 (0x6 bytes), align: 1
  Segment part 41.            Intra module refs:   ?Subroutine0
                                                   ?Subroutine2
                                                   CommandHandler_updateCalibParams
    -------------------------------------------------------------------------
<CODE> 1 (was CODE)
  Relative segment, address: 57DA - 57E9 (0x10 bytes), align: 1
  Segment part 42.            Intra module refs:   CommandHandler_registerCmdListeners
           LOCAL                   ADDRESS         
           =====                   =======         
           Handler_param6_id       57DA 
               calls direct
    -------------------------------------------------------------------------
<CODE> 1 (was CODE)
  Relative segment, address: 57EA - 57F7 (0xe bytes), align: 1
  Segment part 43.            Intra module refs:   CommandHandler_registerCmdListeners
           LOCAL                   ADDRESS         
           =====                   =======         
           Handler_param7_id       57EA 
               calls direct
    -------------------------------------------------------------------------
<CODE> 1 (was CODE)
  Relative segment, address: 57F8 - 5805 (0xe bytes), align: 1
  Segment part 44.            Intra module refs:   CommandHandler_registerCmdListeners
           LOCAL                   ADDRESS         
           =====                   =======         
           Handler_param8_id       57F8 
               calls direct
    -------------------------------------------------------------------------
<CODE> 1 (was CODE)
  Relative segment, address: 5806 - 5813 (0xe bytes), align: 1
  Segment part 45.            Intra module refs:   CommandHandler_registerCmdListeners
           LOCAL                   ADDRESS         
           =====                   =======         
           Handler_param9_id       5806 
               calls direct
    -------------------------------------------------------------------------
<CODE> 1 (was CODE)
  Relative segment, address: 5814 - 5823 (0x10 bytes), align: 1
  Segment part 46.            Intra module refs:   CommandHandler_registerCmdListeners
           LOCAL                   ADDRESS         
           =====                   =======         
           Handler_param10_id      5814 
               calls direct
    -------------------------------------------------------------------------
<CODE> 1 (was CODE)
  Relative segment, address: 5824 - 5831 (0xe bytes), align: 1
  Segment part 47.            Intra module refs:   CommandHandler_registerCmdListeners
           LOCAL                   ADDRESS         
           =====                   =======         
           Handler_plot_dtof_id    5824 
               calls direct
    -------------------------------------------------------------------------
<CODE> 1 (was CODE)
  Relative segment, address: 5832 - 583F (0xe bytes), align: 1
  Segment part 48.            Intra module refs:   CommandHandler_registerCmdListeners
           LOCAL                   ADDRESS         
           =====                   =======         
           Handler_plot_abs_ups_id
                                   5832 
               calls direct
    -------------------------------------------------------------------------
<CODE> 1 (was CODE)
  Relative segment, address: 5840 - 584D (0xe bytes), align: 1
  Segment part 49.            Intra module refs:   CommandHandler_registerCmdListeners
           LOCAL                   ADDRESS         
           =====                   =======         
           Handler_plot_abs_dns_id
                                   5840 
               calls direct
    -------------------------------------------------------------------------
<CODE> 1 (was CODE)
  Relative segment, address: 584E - 585B (0xe bytes), align: 1
  Segment part 50.            Intra module refs:   CommandHandler_registerCmdListeners
           LOCAL                   ADDRESS         
           =====                   =======         
           Handler_plot_vol_id     584E 
               calls direct
    -------------------------------------------------------------------------
<CODE> 1 (was CODE)
  Relative segment, address: 585C - 586B (0x10 bytes), align: 1
  Segment part 51.            Intra module refs:   CommandHandler_registerCmdListeners
           LOCAL                   ADDRESS         
           =====                   =======         
           Handler_lea_enable      585C 
               calls direct
    -------------------------------------------------------------------------
<CODE> 1 (was CODE)
  Relative segment, address: 586C - 5879 (0xe bytes), align: 1
  Segment part 52.            Intra module refs:   CommandHandler_registerCmdListeners
           LOCAL                   ADDRESS         
           =====                   =======         
           Handler_req_app_req_update
                                   586C 
               calls direct
    -------------------------------------------------------------------------
<CODE> 1 (was CODE)
  Relative segment, address: 587A - 5887 (0xe bytes), align: 1
  Segment part 53.            Intra module refs:   CommandHandler_registerCmdListeners
           LOCAL                   ADDRESS         
           =====                   =======         
           Handler_req_app_req_data
                                   587A 
               calls direct
    -------------------------------------------------------------------------
<CODE> 1 (was CODE)
  Relative segment, address: 5888 - 5895 (0xe bytes), align: 1
  Segment part 54.            Intra module refs:   CommandHandler_registerCmdListeners
           LOCAL                   ADDRESS         
           =====                   =======         
           Handler_req_app_req_captures
                                   5888 
               calls direct
    -------------------------------------------------------------------------
<CODE> 1 (was CODE)
  Relative segment, address: 5896 - 5979 (0xe4 bytes), align: 1
  Segment part 55.            Intra module refs:   CommandHandler_registerCmdListeners
                                                   Handler_app_version
           LOCAL                   ADDRESS         
           =====                   =======         
           Handler_mtr_calibration_table_id
                                   5896 
               calls direct
    -------------------------------------------------------------------------
<CODE> 1 (was CODE)
  Relative segment, address: 597A - 59C9 (0x50 bytes), align: 1
  Segment part 56.            Intra module refs:   CommandHandler_registerCmdListeners
           LOCAL                   ADDRESS         
           =====                   =======         
           Handler_app_version     597A 
               calls direct
    -------------------------------------------------------------------------
<CODE> 1 (was CODE)
  Relative segment, address: 59CA - 59DB (0x12 bytes), align: 1
  Segment part 57.            Intra module refs:   CommandHandler_transmitResults
                                                   Handler_app_version
           LOCAL                   ADDRESS         
           =====                   =======         
           ?Subroutine4            59CA 
    -------------------------------------------------------------------------
<CODE> 1 (was CODE)
  Relative segment, address: 59DC - 5A37 (0x5c bytes), align: 1
  Segment part 58.            Intra module refs:   CommandHandler_registerCmdListeners
           LOCAL                   ADDRESS         
           =====                   =======         
           Handler_f1_and_f2       59DC 
               calls direct
    -------------------------------------------------------------------------
<CODE> 1 (was CODE)
  Relative segment, address: 5A38 - 5A47 (0x10 bytes), align: 1
  Segment part 59.            Intra module refs:   CommandHandler_registerCmdListeners
           LOCAL                   ADDRESS         
           =====                   =======         
           Handler_pattern_opt     5A38 
               calls direct
    -------------------------------------------------------------------------
<CODE> 1 (was CODE)
  Relative segment, address: 5A48 - 5B1B (0xd4 bytes), align: 1
  Segment part 60.            Intra module refs:   CommandHandler_registerCmdListeners
           LOCAL                   ADDRESS         
           =====                   =======         
           Handler_req_calibration_config_id
                                   5A48 
               calls direct
    -------------------------------------------------------------------------
<CODE> 1 (was CODE)
  Relative segment, address: 5B1C - 5B23 (0x8 bytes), align: 1
  Segment part 61.            Intra module refs:   Handler_calib_linear_constants_id
                                                   Handler_req_calibration_config_id
           LOCAL                   ADDRESS         
           =====                   =======         
           ?Subroutine1            5B1C 
    -------------------------------------------------------------------------
<CODE> 1 (was CODE)
  Relative segment, address: 5B24 - 5B33 (0x10 bytes), align: 1
  Segment part 62.            Intra module refs:   Handler_req_calibration_config_id
           LOCAL                   ADDRESS         
           =====                   =======         
           ?Subroutine10           5B24 
    -------------------------------------------------------------------------
<CODE> 1 (was CODE)
  Relative segment, address: 5B34 - 5B3F (0xc bytes), align: 1
  Segment part 63.            Intra module refs:   CommandHandler_registerCmdListeners
           LOCAL                   ADDRESS         
           =====                   =======         
           Handler_max_vfr_id      5B34 
               calls direct
    -------------------------------------------------------------------------
<CODE> 1 (was CODE)
  Relative segment, address: 5B40 - 5B4F (0x10 bytes), align: 1
  Segment part 64.            Intra module refs:   Handler_max_vfr_id
                                                   Handler_req_calibration_config_id
           LOCAL                   ADDRESS         
           =====                   =======         
           ?Subroutine6            5B40 
    -------------------------------------------------------------------------
<CODE> 1 (was CODE)
  Relative segment, address: 5B50 - 5BDF (0x90 bytes), align: 1
  Segment part 65.            Intra module refs:   CommandHandler_registerCmdListeners
           LOCAL                   ADDRESS         
           =====                   =======         
           Handler_calib_linear_constants_id
                                   5B50 
               calls direct
    -------------------------------------------------------------------------
<CODE> 1 (was CODE)
  Relative segment, address: 5BE0 - 5BF9 (0x1a bytes), align: 1
  Segment part 66.            Intra module refs:   Handler_calib_linear_constants_id
           LOCAL                   ADDRESS         
           =====                   =======         
           ?Subroutine9            5BE0 
    -------------------------------------------------------------------------
<CODE> 1 (was CODE)
  Relative segment, address: 5BFA - 5C13 (0x1a bytes), align: 1
  Segment part 67.
           ENTRY                   ADDRESS         REF BY
           =====                   =======         ======
           CommandHandler_setApplicationVersion
                                   5BFA            HMI_Init (hmi)
    -------------------------------------------------------------------------
<CODE> 1 (was CODE)
  Relative segment, address: 5C14 - 5C1B (0x8 bytes), align: 1
  Segment part 68.
           ENTRY                   ADDRESS         REF BY
           =====                   =======         ======
           CommandHandler_setAdvMtrCalibTableStatus
                                   5C14            HMI_Init (hmi)
    -------------------------------------------------------------------------
<CODE> 1 (was CODE)
  Relative segment, address: 5C1C - 5C2B (0x10 bytes), align: 1
  Segment part 69.
           ENTRY                   ADDRESS         REF BY
           =====                   =======         ======
           CommandHandler_transmittDebugData
                                   5C1C            HMI_PostAlgorithm_Update (hmi)
               calls direct
    -------------------------------------------------------------------------
<CODE> 1 (was CODE)
  Relative segment, address: 5C2C - 5C33 (0x8 bytes), align: 1
  Segment part 70.            Intra module refs:   CommandHandler_transmittAdvancedDebugData
                                                   CommandHandler_transmittDebugData
           LOCAL                   ADDRESS         
           =====                   =======         
           ?Subroutine2            5C2C 
    -------------------------------------------------------------------------
<CODE> 1 (was CODE)
  Relative segment, address: 5C34 - 5C4F (0x1c bytes), align: 1
  Segment part 71.
           ENTRY                   ADDRESS         REF BY
           =====                   =======         ======
           CommandHandler_transmittAdvancedDebugData
                                   5C34            HMI_PostAlgorithm_Update (hmi)
               calls direct
    -------------------------------------------------------------------------
<CODE> 1 (was CODE)
  Relative segment, address: 8C2E - 8D6D (0x140 bytes), align: 1
  Segment part 10.            Intra module refs:   CommandHandler_prepareForParamUpdate
                                                   CommandHandler_rxUpdate
           LOCAL                   ADDRESS         
           =====                   =======         
           resolveRXFlag           8C2E 
    -------------------------------------------------------------------------
<CODE> 1 (was CODE)
  Relative segment, address: D02E - D047 (0x1a bytes), align: 1
  Segment part 72.            Intra module refs:   CommandHandler_transmittAdvancedDebugData
                                                   CommandHandler_transmittDebugData
           LOCAL                   ADDRESS         
           =====                   =======         
           ?Subroutine3            D02E 
    -------------------------------------------------------------------------
<CODE> 1 (was CODE)
  Relative segment, address: D500 - D50B (0xc bytes), align: 1
  Segment part 74.            Intra module refs:   ?Subroutine8
                                                   CommandHandler_transmitErrorPacket
                                                   CommandHandler_transmittDebugData
           LOCAL                   ADDRESS         
           =====                   =======         
           ?Subroutine12           D500 
    -------------------------------------------------------------------------
<CODE> 1 (was CODE)
  Relative segment, address: D174 - D189 (0x16 bytes), align: 1
  Segment part 73.
           ENTRY                   ADDRESS         REF BY
           =====                   =======         ======
           CommandHandler_transmitErrorPacket
                                   D174            HMI_reportError_sendErrorMessage (hmi)
               calls direct
    -------------------------------------------------------------------------
<CODE> 1 (was CODE)
  Relative segment, address: D280 - D291 (0x12 bytes), align: 1
  Segment part 75.
           ENTRY                   ADDRESS         REF BY
           =====                   =======         ======
           CommandHandler_transmitUserMessagePacket
                                   D280            HMI_updateUSSParameters (hmi)
               calls direct
    -------------------------------------------------------------------------
<CODE> 1 (was CODE)
  Relative segment, address: D320 - D32F (0x10 bytes), align: 1
  Segment part 77.            Intra module refs:   CommandHandler_transmitUserErrorMsgPacket
                                                   CommandHandler_transmitUserMessagePacket
           LOCAL                   ADDRESS         
           =====                   =======         
           ?Subroutine8            D320 
    -------------------------------------------------------------------------
<CODE> 1 (was CODE)
  Relative segment, address: D0B0 - D0C9 (0x1a bytes), align: 1
  Segment part 76.
           ENTRY                   ADDRESS         REF BY
           =====                   =======         ======
           CommandHandler_transmitUserErrorMsgPacket
                                   D0B0            HMI_reportError_sendErrorMessage (hmi)
               calls direct
    -------------------------------------------------------------------------
DATA20_C
  Relative segment, address: DE2E - DE48 (0x1b bytes), align: 0
  Segment part 2.             Intra module refs:   CommandHandler_updateParams

    *************************************************************************

  FILE NAME : C:\Git\msp430-uss-library\Library\src\examples\USS_Water_Demo\IAR\LPM\Obj\USSLibGUIApp.r43
  PROGRAM MODULE, NAME : USSLibGUIApp

  SEGMENTS IN THE MODULE
  ======================
<CODE> 1 (was CODE)
  Relative segment, address: B4A0 - B513 (0x74 bytes), align: 1
  Segment part 3.
           ENTRY                   ADDRESS         REF BY
           =====                   =======         ======
           USSLibGUIApp_Init       B4A0            main (main)
               calls direct
    -------------------------------------------------------------------------
<CODE> 1 (was CODE)
  Relative segment, address: D4DA - D4E7 (0xe bytes), align: 1
  Segment part 5.             Intra module refs:   USSLibGUIApp_Init
                                                   USSLibGUIApp_ReInitialize
           LOCAL                   ADDRESS         
           =====                   =======         
           ?Subroutine2            D4DA 
    -------------------------------------------------------------------------
<CODE> 1 (was CODE)
  Relative segment, address: D3D0 - D3DD (0xe bytes), align: 1
  Segment part 6.             Intra module refs:   USSLibGUIApp_Init
                                                   USSLibGUIApp_ReInitialize
           LOCAL                   ADDRESS         
           =====                   =======         
           ?Subroutine1            D3D0 
    -------------------------------------------------------------------------
<CODE> 1 (was CODE)
  Relative segment, address: D3C0 - D3CF (0x10 bytes), align: 1
  Segment part 7.             Intra module refs:   USSLibGUIApp_Init
                                                   USSLibGUIApp_ReInitialize
           LOCAL                   ADDRESS         
           =====                   =======         
           ?Subroutine0            D3C0 
    -------------------------------------------------------------------------
<CODE> 1 (was CODE)
  Relative segment, address: BC44 - BC99 (0x56 bytes), align: 1
  Segment part 4.
           ENTRY                   ADDRESS         REF BY
           =====                   =======         ======
           USSLibGUIApp_ReInitialize
                                   BC44            HMI_updateUSSParameters (hmi)
               calls direct
    -------------------------------------------------------------------------
<CODE> 1 (was CODE)
  Relative segment, address: AB52 - ABE7 (0x96 bytes), align: 1
  Segment part 8.
           ENTRY                   ADDRESS         REF BY
           =====                   =======         ======
           USSLibGUIApp_Engine     AB52            main (main)
               calls direct
    -------------------------------------------------------------------------
<CODE> 1 (was CODE)
  Relative segment, address: D6C4 - D6C7 (0x4 bytes), align: 1
  Segment part 2.             Intra module refs:   USSLibGUIApp_Engine
                                                   USSLibGUIApp_Init
                                                   USSLibGUIApp_ReInitialize
           ENTRY                   ADDRESS         REF BY
           =====                   =======         ======
           USSLibGUIApp_send_error
                                   D6C4            main (main)
               calls direct

    *************************************************************************

  FILE NAME : C:\Git\msp430-uss-library\Library\src\examples\USS_Water_Demo\IAR\LPM\Obj\ussSwLibAlgorithm.r43
    *************************************************************************

  FILE NAME : C:\Git\msp430-uss-library\Library\src\examples\USS_Water_Demo\IAR\LPM\Obj\ussSwLibAppDebug.r43
  PROGRAM MODULE, NAME : ussSwLibAppDebug

  SEGMENTS IN THE MODULE
  ======================
DATA16_AN
  Relative segment, address: 0160 - 0161 (0x2 bytes), align: 0
  Segment part 1. ROOT        Intra module refs:   commonTimerConfigureTimer (ussSwLibCommonTimer)
           ENTRY                   ADDRESS         REF BY
           =====                   =======         ======
           _A_CSCTL0_L             0160 
           LOCAL                   ADDRESS         
           =====                   =======         
           CSCTL0                  0160 
           CSCTL0_H                0161 
           CSCTL0_L                0160 
    -------------------------------------------------------------------------
DATA16_AN
  Relative segment, address: 016A - 016B (0x2 bytes), align: 0
  Segment part 2. ROOT        Intra module refs:   commonTimerConfigureTimer (ussSwLibCommonTimer)
           ENTRY                   ADDRESS         REF BY
           =====                   =======         ======
           _A_CSCTL5_L             016A 
           LOCAL                   ADDRESS         
           =====                   =======         
           CSCTL5                  016A 
           CSCTL5_H                016B 
           CSCTL5_L                016A 
    -------------------------------------------------------------------------
DATA16_AN
  Relative segment, address: 0EF0 - 0EF1 (0x2 bytes), align: 0
  Segment part 3. ROOT        Intra module refs:   USS_updateHSPLLConfiguration (ussSwLibConfiguration)
           ENTRY                   ADDRESS         REF BY
           =====                   =======         ======
           _A_HSPLLCTL_L           0EF0 
           LOCAL                   ADDRESS         
           =====                   =======         
           HSPLLCTL                0EF0 
           HSPLLCTL_H              0EF1 
           HSPLLCTL_L              0EF0 
    -------------------------------------------------------------------------
DATA16_AN
  Relative segment, address: 0E90 - 0E91 (0x2 bytes), align: 0
  Segment part 4. ROOT        Intra module refs:   USS_updateSDHSConfiguration (ussSwLibConfiguration)
           ENTRY                   ADDRESS         REF BY
           =====                   =======         ======
           _A_SDHSCTL0_L           0E90 
           LOCAL                   ADDRESS         
           =====                   =======         
           SDHSCTL0                0E90 
           SDHSCTL0_H              0E91 
           SDHSCTL0_L              0E90 
    -------------------------------------------------------------------------
DATA16_AN
  Relative segment, address: 0E96 - 0E97 (0x2 bytes), align: 0
  Segment part 5. ROOT        Intra module refs:   USS_updateHSPLLConfiguration (ussSwLibConfiguration)
                                                   USS_updateSDHSConfiguration (ussSwLibConfiguration)
                                                   commonSDHSRestoreSDHSDTCA (ussSwLibCommonSDHS)
           ENTRY                   ADDRESS         REF BY
           =====                   =======         ======
           _A_SDHSCTL3_L           0E96 
           LOCAL                   ADDRESS         
           =====                   =======         
           SDHSCTL3                0E96 
           SDHSCTL3_H              0E97 
           SDHSCTL3_L              0E96 
    -------------------------------------------------------------------------
DATA16_AN
  Relative segment, address: 0E98 - 0E99 (0x2 bytes), align: 0
  Segment part 6. ROOT        Intra module refs:   USS_updateSDHSConfiguration (ussSwLibConfiguration)
                                                   commonSDHSRestoreSDHSDTCA (ussSwLibCommonSDHS)
           ENTRY                   ADDRESS         REF BY
           =====                   =======         ======
           _A_SDHSCTL4_L           0E98 
           LOCAL                   ADDRESS         
           =====                   =======         
           SDHSCTL4                0E98 
           SDHSCTL4_H              0E99 
           SDHSCTL4_L              0E98 
    -------------------------------------------------------------------------
DATA16_AN
  Relative segment, address: 0102 - 0103 (0x2 bytes), align: 0
  Segment part 7. ROOT        Intra module refs:   commonTimerConfigureTimer (ussSwLibCommonTimer)
           ENTRY                   ADDRESS         REF BY
           =====                   =======         ======
           _A_SFRIFG1_L            0102 
           LOCAL                   ADDRESS         
           =====                   =======         
           SFRIFG1                 0102 
           SFRIFG1_H               0103 
           SFRIFG1_L               0102 
    -------------------------------------------------------------------------
DATA16_AN
  Relative segment, address: 0ED0 - 0ED1 (0x2 bytes), align: 0
  Segment part 8. ROOT        Intra module refs:   USS_commonTriggerSingleCapture (ussSwLibMeasurement)
                                                   USS_resetUSSModule (ussSwLibConfiguration)
                                                   USS_updateHSPLLConfiguration (ussSwLibConfiguration)
                                                   USS_updateSAPHConfiguration (ussSwLibConfiguration)
                                                   USS_updateSDHSConfiguration (ussSwLibConfiguration)
                                                   USS_updateUSSInterruptsConfiguration (ussSwLibConfiguration)
                                                   USS_updateUUPSConfiguration (ussSwLibConfiguration)
                                                   commonUpdateUSSULPbiasDelay (ussSwLibCommonUSS)
           ENTRY                   ADDRESS         REF BY
           =====                   =======         ======
           _A_UUPSCTL_L            0ED0 
           LOCAL                   ADDRESS         
           =====                   =======         
           UUPSCTL                 0ED0 
           UUPSCTL_H               0ED1 
           UUPSCTL_L               0ED0 

    *************************************************************************

  FILE NAME : C:\Git\msp430-uss-library\Library\src\examples\USS_Water_Demo\IAR\LPM\Obj\ussSwLibCalibration.r43
  PROGRAM MODULE, NAME : ussSwLibCalibration

  SEGMENTS IN THE MODULE
  ======================
DATA16_AN
  Relative segment, address: 0EE4 - 0EE5 (0x2 bytes), align: 0
  Segment part 1. ROOT 
           ENTRY                   ADDRESS         REF BY
           =====                   =======         ======
           _A_HSPLLRIS_L           0EE4 
           LOCAL                   ADDRESS         
           =====                   =======         
           HSPLLRIS                0EE4 
           HSPLLRIS_H              0EE5 
           HSPLLRIS_L              0EE4 
    -------------------------------------------------------------------------
DATA16_AN
  Relative segment, address: 0EE8 - 0EE9 (0x2 bytes), align: 0
  Segment part 2. ROOT        Intra module refs:   USS_commonTriggerSingleCapture (ussSwLibMeasurement)
           ENTRY                   ADDRESS         REF BY
           =====                   =======         ======
           _A_HSPLLICR_L           0EE8 
           LOCAL                   ADDRESS         
           =====                   =======         
           HSPLLICR                0EE8 
           HSPLLICR_H              0EE9 
           HSPLLICR_L              0EE8 
    -------------------------------------------------------------------------
DATA16_AN
  Relative segment, address: 0EF2 - 0EF3 (0x2 bytes), align: 0
  Segment part 3. ROOT        Intra module refs:   USS_commonTriggerSingleCapture (ussSwLibMeasurement)
                                                   USS_updateHSPLLConfiguration (ussSwLibConfiguration)
           ENTRY                   ADDRESS         REF BY
           =====                   =======         ======
           _A_HSPLLUSSXTLCTL_L     0EF2 
           LOCAL                   ADDRESS         
           =====                   =======         
           HSPLLUSSXTLCTL          0EF2 
           HSPLLUSSXTLCTL_H        0EF3 
           HSPLLUSSXTLCTL_L        0EF2 

    *************************************************************************

  FILE NAME : C:\Git\msp430-uss-library\Library\src\examples\USS_Water_Demo\IAR\LPM\Obj\ussSwLibCommonHSPLL.r43
  PROGRAM MODULE, NAME : ussSwLibCommonHSPLL

  SEGMENTS IN THE MODULE
  ======================
<CODE> 1 (was CODE)
  Relative segment, address: C65E - C68F (0x32 bytes), align: 1
  Segment part 2.
           ENTRY                   ADDRESS         REF BY
           =====                   =======         ======
           commonValidateHSPLLconfiguration
                                   C65E            USS_updateHSPLLConfiguration (ussSwLibConfiguration)
    -------------------------------------------------------------------------
<CODE> 1 (was CODE)
  Relative segment, address: A4A6 - A561 (0xbc bytes), align: 1
  Segment part 4.
           ENTRY                   ADDRESS         REF BY
           =====                   =======         ======
           commonGetHSPLLFreqInHz
                                   A4A6            commonConfigurePPGDutyCyle (ussSwLibCommonSAPH)

    *************************************************************************

  FILE NAME : C:\Git\msp430-uss-library\Library\src\examples\USS_Water_Demo\IAR\LPM\Obj\ussSwLibCommonInterrupts.r43
  PROGRAM MODULE, NAME : ussSwLibCommonInterrupts

  SEGMENTS IN THE MODULE
  ======================
DATA16_AN
  Relative segment, address: 0EE6 - 0EE7 (0x2 bytes), align: 0
  Segment part 1. ROOT        Intra module refs:   commonDisableCaptureInterrupts
                                                   commonEnableCommonCaptureInterrupts
           ENTRY                   ADDRESS         REF BY
           =====                   =======         ======
           _A_HSPLLIMSC_L          0EE6 
           LOCAL                   ADDRESS         
           =====                   =======         
           HSPLLIMSC               0EE6 
           HSPLLIMSC_H             0EE7 
           HSPLLIMSC_L             0EE6 
    -------------------------------------------------------------------------
DATA16_AN
  Relative segment, address: 0E86 - 0E87 (0x2 bytes), align: 0
  Segment part 3. ROOT        Intra module refs:   commonDisableCaptureInterrupts
                                                   commonEnableCommonCaptureInterrupts
           ENTRY                   ADDRESS         REF BY
           =====                   =======         ======
           _A_SDHSIMSC_L           0E86 
           LOCAL                   ADDRESS         
           =====                   =======         
           SDHSIMSC                0E86 
           SDHSIMSC_H              0E87 
           SDHSIMSC_L              0E86 
    -------------------------------------------------------------------------
DATA16_AN
  Relative segment, address: 0E88 - 0E89 (0x2 bytes), align: 0
  Segment part 4. ROOT        Intra module refs:   USS_commonTriggerSingleCapture (ussSwLibMeasurement)
           ENTRY                   ADDRESS         REF BY
           =====                   =======         ======
           _A_SDHSICR_L            0E88 
           LOCAL                   ADDRESS         
           =====                   =======         
           SDHSICR                 0E88 
           SDHSICR_H               0E89 
           SDHSICR_L               0E88 
    -------------------------------------------------------------------------
DATA16_AN
  Relative segment, address: 0EC6 - 0EC7 (0x2 bytes), align: 0
  Segment part 5. ROOT        Intra module refs:   USS_updateUSSInterruptsConfiguration (ussSwLibConfiguration)
                                                   commonDisableCaptureInterrupts
                                                   commonEnableCommonCaptureInterrupts
           ENTRY                   ADDRESS         REF BY
           =====                   =======         ======
           _A_UUPSIMSC_L           0EC6 
           LOCAL                   ADDRESS         
           =====                   =======         
           UUPSIMSC                0EC6 
           UUPSIMSC_H              0EC7 
           UUPSIMSC_L              0EC6 
    -------------------------------------------------------------------------
DATA16_AN
  Relative segment, address: 0EC8 - 0EC9 (0x2 bytes), align: 0
  Segment part 6. ROOT        Intra module refs:   USS_commonTriggerSingleCapture (ussSwLibMeasurement)
                                                   USS_updateUSSInterruptsConfiguration (ussSwLibConfiguration)
           ENTRY                   ADDRESS         REF BY
           =====                   =======         ======
           _A_UUPSICR_L            0EC8 
           LOCAL                   ADDRESS         
           =====                   =======         
           UUPSICR                 0EC8 
           UUPSICR_H               0EC9 
           UUPSICR_L               0EC8 
    -------------------------------------------------------------------------
<CODE> 1 (was CODE)
  Relative segment, address: D518 - D523 (0xc bytes), align: 1
  Segment part 9.
           ENTRY                   ADDRESS         REF BY
           =====                   =======         ======
           commonEnableCaptureInterrupts
                                   D518            USS_commonTriggerSingleCapture (ussSwLibMeasurement)
               calls direct
    -------------------------------------------------------------------------
<CODE> 1 (was CODE)
  Relative segment, address: CAF6 - CB1D (0x28 bytes), align: 1
  Segment part 8.             Intra module refs:   commonEnableCaptureInterrupts
           LOCAL                   ADDRESS         
           =====                   =======         
           commonEnableCommonCaptureInterrupts
                                   CAF6 
    -------------------------------------------------------------------------
<CODE> 1 (was CODE)
  Relative segment, address: C5FA - C62B (0x32 bytes), align: 1
  Segment part 11.
           ENTRY                   ADDRESS         REF BY
           =====                   =======         ======
           commonDisableCaptureInterrupts
                                   C5FA            commonIsconversionSuccessfull (ussSwLibCommonUSS)

    *************************************************************************

  FILE NAME : C:\Git\msp430-uss-library\Library\src\examples\USS_Water_Demo\IAR\LPM\Obj\ussSwLibCommonSAPH.r43
  PROGRAM MODULE, NAME : ussSwLibCommonSAPH

  SEGMENTS IN THE MODULE
  ======================
<CODE> 1 (was CODE)
  Relative segment, address: 9CE4 - 9DB7 (0xd4 bytes), align: 1
  Segment part 3.
           ENTRY                   ADDRESS         REF BY
           =====                   =======         ======
           commonConfigurePPGDutyCyle
                                   9CE4            USS_updateSAPHConfiguration (ussSwLibConfiguration)
               calls direct
    -------------------------------------------------------------------------
<CODE> 1 (was CODE)
  Relative segment, address: CEF8 - CF15 (0x1e bytes), align: 1
  Segment part 4.             Intra module refs:   commonConfigurePPGDutyCyle
           LOCAL                   ADDRESS         
           =====                   =======         
           ?Subroutine1            CEF8 
    -------------------------------------------------------------------------
<CODE> 1 (was CODE)
  Relative segment, address: C362 - C39D (0x3c bytes), align: 1
  Segment part 5.             Intra module refs:   commonConfigurePPGDutyCyle
           LOCAL                   ADDRESS         
           =====                   =======         
           ?Subroutine0            C362 
    -------------------------------------------------------------------------
<CODE> 1 (was CODE)
  Relative segment, address: 72F4 - 756D (0x27a bytes), align: 1
  Segment part 7.
           ENTRY                   ADDRESS         REF BY
           =====                   =======         ======
           commonValidateSAPHconfigruation
                                   72F4            USS_updateSAPHConfiguration (ussSwLibConfiguration)
               calls direct

    *************************************************************************

  FILE NAME : C:\Git\msp430-uss-library\Library\src\examples\USS_Water_Demo\IAR\LPM\Obj\ussSwLibCommonSDHS.r43
  PROGRAM MODULE, NAME : ussSwLibCommonSDHS

  SEGMENTS IN THE MODULE
  ======================
DATA16_AN
  Relative segment, address: 0E9E - 0E9F (0x2 bytes), align: 0
  Segment part 3. ROOT        Intra module refs:   commonSDHSConfigModOpt
           ENTRY                   ADDRESS         REF BY
           =====                   =======         ======
           _A_SDHSCTL7_L           0E9E 
           LOCAL                   ADDRESS         
           =====                   =======         
           SDHSCTL7                0E9E 
           SDHSCTL7_H              0E9F 
           SDHSCTL7_L              0E9E 
    -------------------------------------------------------------------------
DATA16_AN
  Relative segment, address: 0EA8 - 0EA9 (0x2 bytes), align: 0
  Segment part 4. ROOT        Intra module refs:   commonSDHSRestoreSDHSDTCA
           ENTRY                   ADDRESS         REF BY
           =====                   =======         ======
           _A_SDHSDTCDA_L          0EA8 
           LOCAL                   ADDRESS         
           =====                   =======         
           SDHSDTCDA               0EA8 
           SDHSDTCDA_H             0EA9 
           SDHSDTCDA_L             0EA8 
    -------------------------------------------------------------------------
<CODE> 1 (was CODE)
  Relative segment, address: B3AE - B427 (0x7a bytes), align: 1
  Segment part 6.
           ENTRY                   ADDRESS         REF BY
           =====                   =======         ======
           commonValidateSDHSconfigruation
                                   B3AE            USS_updateSDHSConfiguration (ussSwLibConfiguration)
    -------------------------------------------------------------------------
<CODE> 1 (was CODE)
  Relative segment, address: C44C - C483 (0x38 bytes), align: 1
  Segment part 7.
           ENTRY                   ADDRESS         REF BY
           =====                   =======         ======
           commonSDHSRestoreSDHSDTCA
                                   C44C            USS_startLowPowerUltrasonicCapture (ussSwLibMeasurement)
                                                   USS_updateSDHSConfiguration (ussSwLibConfiguration)
    -------------------------------------------------------------------------
<CODE> 1 (was CODE)
  Relative segment, address: BD92 - BDE3 (0x52 bytes), align: 1
  Segment part 8.
           ENTRY                   ADDRESS         REF BY
           =====                   =======         ======
           commonSDHSConfigModOpt
                                   BD92            USS_updateHSPLLConfiguration (ussSwLibConfiguration)
                                                   USS_updateSDHSConfiguration (ussSwLibConfiguration)

    *************************************************************************

  FILE NAME : C:\Git\msp430-uss-library\Library\src\examples\USS_Water_Demo\IAR\LPM\Obj\ussSwLibCommonTimer.r43
  PROGRAM MODULE, NAME : ussSwLibCommonTimer

  SEGMENTS IN THE MODULE
  ======================
<CODE> 1 (was CODE)
  Relative segment, address: A026 - A047 (0x22 bytes), align: 1
  Segment part 8.             Intra module refs:   commonTimerConfigureTick
                                                   commonTimerGenerateLowPowerDelay
           ENTRY                   ADDRESS         REF BY
           =====                   =======         ======
           commonTimerConfigureDelay
                                   A026 
    -------------------------------------------------------------------------
<CODE> 1 (was CODE)
  Relative segment, address: A048 - A055 (0xe bytes), align: 1
  Segment part 9.             Intra module refs:   commonTimerConfigureDelay
           LOCAL                   ADDRESS         
           =====                   =======         
           ?Subroutine0            A048 
    -------------------------------------------------------------------------
<CODE> 1 (was CODE)
  Relative segment, address: A056 - A0A5 (0x50 bytes), align: 1
  Segment part 10.            Intra module refs:   commonTimerConfigureTimer
           ENTRY                   ADDRESS         REF BY
           =====                   =======         ======
           commonTimerGenerateLowPowerDelay
                                   A056            USS_commonTriggerSingleCapture (ussSwLibMeasurement)
               calls direct
    -------------------------------------------------------------------------
<CODE> 1 (was CODE)
  Relative segment, address: A0A6 - A0B3 (0xe bytes), align: 1
  Segment part 11.            Intra module refs:   commonTimerGenerateLowPowerDelay
           LOCAL                   ADDRESS         
           =====                   =======         
           ?Subroutine4            A0A6 
    -------------------------------------------------------------------------
<CODE> 1 (was CODE)
  Relative segment, address: A0B4 - A0DD (0x2a bytes), align: 1
  Segment part 12.
           ENTRY                   ADDRESS         REF BY
           =====                   =======         ======
           commonTimerConfigureTick
                                   A0B4            USS_configAppTimerPeriod (ussSwLibMeasurement)
               calls direct
    -------------------------------------------------------------------------
<CODE> 1 (was CODE)
  Relative segment, address: A0DE - A0ED (0x10 bytes), align: 1
  Segment part 24.            Intra module refs:   commonTimerConfigureTick
                                                   commonTimerWaitTickEvent
           LOCAL                   ADDRESS         
           =====                   =======         
           ?Subroutine3            A0DE 
    -------------------------------------------------------------------------
<CODE> 1 (was CODE)
  Relative segment, address: D62C - D633 (0x8 bytes), align: 1
  Segment part 26.            Intra module refs:   commonTimerConfigureDelay
           LOCAL                   ADDRESS         
           =====                   =======         
           ?Subroutine6            D62C 
    -------------------------------------------------------------------------
<CODE> 1 (was CODE)
  Relative segment, address: CB46 - CB6D (0x28 bytes), align: 1
  Segment part 23.
           ENTRY                   ADDRESS         REF BY
           =====                   =======         ======
           commonTimerWaitTickEvent
                                   CB46            USS_waitForAppTimerElapse (ussSwLibMeasurement)
               calls direct
    -------------------------------------------------------------------------
<CODE> 1 (was CODE)
  Relative segment, address: C1EA - C229 (0x40 bytes), align: 1
  Segment part 20.            Intra module refs:   commonTimerWaitTickEvent
           LOCAL                   ADDRESS         
           =====                   =======         
           commonTimerWaitEvent    C1EA 
    -------------------------------------------------------------------------
<CODE> 1 (was CODE)
  Relative segment, address: D554 - D55F (0xc bytes), align: 1
  Segment part 7.             Intra module refs:   ?Subroutine4
                                                   commonTimerConfigureTick
           ENTRY                   ADDRESS         REF BY
           =====                   =======         ======
           commonClearCCFlagStart
                                   D554 
    -------------------------------------------------------------------------
<CODE> 1 (was CODE)
  Relative segment, address: D432 - D43F (0xe bytes), align: 1
  Segment part 6.             Intra module refs:   commonTimerConfigureTick
                                                   commonTimerGenerateLowPowerDelay
           ENTRY                   ADDRESS         REF BY
           =====                   =======         ======
           commonTimerEnableInterrupt
                                   D432 
    -------------------------------------------------------------------------
<CODE> 1 (was CODE)
  Relative segment, address: D440 - D44D (0xe bytes), align: 1
  Segment part 5.             Intra module refs:   commonTimerGenerateLowPowerDelay
           ENTRY                   ADDRESS         REF BY
           =====                   =======         ======
           commonTimerDisableInterrupt
                                   D440 
    -------------------------------------------------------------------------
<CODE> 1 (was CODE)
  Relative segment, address: BF64 - BFAD (0x4a bytes), align: 1
  Segment part 30.
           ENTRY                   ADDRESS         REF BY
           =====                   =======         ======
           commonTimerConfigureTimer
                                   BF64            USS_configureUltrasonicMeasurement (ussSwLibMeasurement)
               calls direct
    -------------------------------------------------------------------------
<CODE> 1 (was CODE)
  Relative segment, address: D45C - D469 (0xe bytes), align: 1
  Segment part 31.            Intra module refs:   commonTimerConfigureTimer
           LOCAL                   ADDRESS         
           =====                   =======         
           ?Subroutine5            D45C 

    *************************************************************************

  FILE NAME : C:\Git\msp430-uss-library\Library\src\examples\USS_Water_Demo\IAR\LPM\Obj\ussSwLibCommonUSS.r43
  PROGRAM MODULE, NAME : ussSwLibCommonUSS

  SEGMENTS IN THE MODULE
  ======================
DATA16_AN
  Relative segment, address: 0E84 - 0E85 (0x2 bytes), align: 0
  Segment part 2. ROOT        Intra module refs:   commonIsconversionSuccessfull
           ENTRY                   ADDRESS         REF BY
           =====                   =======         ======
           _A_SDHSRIS_L            0E84 
           LOCAL                   ADDRESS         
           =====                   =======         
           SDHSRIS                 0E84 
           SDHSRIS_H               0E85 
           SDHSRIS_L               0E84 
    -------------------------------------------------------------------------
<CODE> 1 (was CODE)
  Relative segment, address: A826 - A8D3 (0xae bytes), align: 1
  Segment part 9.
           ENTRY                   ADDRESS         REF BY
           =====                   =======         ======
           commonIsconversionSuccessfull
                                   A826            ?Subroutine1 (ussSwLibMeasurement)
               calls direct
    -------------------------------------------------------------------------
<CODE> 1 (was CODE)
  Relative segment, address: B980 - B9D9 (0x5a bytes), align: 1
  Segment part 10.
           ENTRY                   ADDRESS         REF BY
           =====                   =======         ======
           commonWaitForconversion
                                   B980            ?Subroutine1 (ussSwLibMeasurement)
    -------------------------------------------------------------------------
<CODE> 1 (was CODE)
  Relative segment, address: AAB6 - AB51 (0x9c bytes), align: 1
  Segment part 12.
           ENTRY                   ADDRESS         REF BY
           =====                   =======         ======
           commonUpdateUSSULPbiasDelay
                                   AAB6            USS_updateSAPHConfiguration (ussSwLibConfiguration)
               calls direct
    -------------------------------------------------------------------------
<CODE> 1 (was CODE)
  Relative segment, address: CEBC - CED9 (0x1e bytes), align: 1
  Segment part 13.
           ENTRY                   ADDRESS         REF BY
           =====                   =======         ======
           commonDetermineSiliconVersion
                                   CEBC            ?Subroutine0 (ussSwLibConfiguration)
                                                   commonValidateSAPHconfigruation (ussSwLibCommonSAPH)
    -------------------------------------------------------------------------
<CODE> 1 (was CODE)
  Relative segment, address: C39E - C3D9 (0x3c bytes), align: 1
  Segment part 11.            Intra module refs:   commonUpdateUSSULPbiasDelay
           ENTRY                   ADDRESS         REF BY
           =====                   =======         ======
           commonDetermineVariant
                                   C39E            ?Subroutine0 (ussSwLibConfiguration)
                                                   commonValidateSAPHconfigruation (ussSwLibCommonSAPH)

    *************************************************************************

  FILE NAME : C:\Git\msp430-uss-library\Library\src\examples\USS_Water_Demo\IAR\LPM\Obj\ussSwLibConfiguration.r43
  PROGRAM MODULE, NAME : ussSwLibConfiguration

  SEGMENTS IN THE MODULE
  ======================
DATA16_AN
  Relative segment, address: 0E92 - 0E93 (0x2 bytes), align: 0
  Segment part 4. ROOT        Intra module refs:   USS_updateSDHSConfiguration
           ENTRY                   ADDRESS         REF BY
           =====                   =======         ======
           _A_SDHSCTL1_L           0E92 
           LOCAL                   ADDRESS         
           =====                   =======         
           SDHSCTL1                0E92 
           SDHSCTL1_H              0E93 
           SDHSCTL1_L              0E92 
    -------------------------------------------------------------------------
DATA16_AN
  Relative segment, address: 0E94 - 0E95 (0x2 bytes), align: 0
  Segment part 5. ROOT        Intra module refs:   USS_updateSDHSConfiguration
           ENTRY                   ADDRESS         REF BY
           =====                   =======         ======
           _A_SDHSCTL2_L           0E94 
           LOCAL                   ADDRESS         
           =====                   =======         
           SDHSCTL2                0E94 
           SDHSCTL2_H              0E95 
           SDHSCTL2_L              0E94 
    -------------------------------------------------------------------------
DATA16_AN
  Relative segment, address: 0E9A - 0E9B (0x2 bytes), align: 0
  Segment part 8. ROOT        Intra module refs:   USS_updateSDHSConfiguration
           ENTRY                   ADDRESS         REF BY
           =====                   =======         ======
           _A_SDHSCTL5_L           0E9A 
           LOCAL                   ADDRESS         
           =====                   =======         
           SDHSCTL5                0E9A 
           SDHSCTL5_H              0E9B 
           SDHSCTL5_L              0E9A 
    -------------------------------------------------------------------------
DATA16_AN
  Relative segment, address: 0E9C - 0E9D (0x2 bytes), align: 0
  Segment part 9. ROOT        Intra module refs:   USS_updateSDHSConfiguration
           ENTRY                   ADDRESS         REF BY
           =====                   =======         ======
           _A_SDHSCTL6_L           0E9C 
           LOCAL                   ADDRESS         
           =====                   =======         
           SDHSCTL6                0E9C 
           SDHSCTL6_H              0E9D 
           SDHSCTL6_L              0E9C 
    -------------------------------------------------------------------------
DATA16_AN
  Relative segment, address: 0EA4 - 0EA5 (0x2 bytes), align: 0
  Segment part 10. ROOT       Intra module refs:   USS_updateSDHSConfiguration
           ENTRY                   ADDRESS         REF BY
           =====                   =======         ======
           _A_SDHSWINHITH_L        0EA4 
           LOCAL                   ADDRESS         
           =====                   =======         
           SDHSWINHITH             0EA4 
           SDHSWINHITH_H           0EA5 
           SDHSWINHITH_L           0EA4 
    -------------------------------------------------------------------------
DATA16_AN
  Relative segment, address: 0EA6 - 0EA7 (0x2 bytes), align: 0
  Segment part 11. ROOT       Intra module refs:   USS_updateSDHSConfiguration
           ENTRY                   ADDRESS         REF BY
           =====                   =======         ======
           _A_SDHSWINLOTH_L        0EA6 
           LOCAL                   ADDRESS         
           =====                   =======         
           SDHSWINLOTH             0EA6 
           SDHSWINLOTH_H           0EA7 
           SDHSWINLOTH_L           0EA6 
    -------------------------------------------------------------------------
<CODE> 1 (was CODE)
  Relative segment, address: AF3C - AFC1 (0x86 bytes), align: 1
  Segment part 16.
           ENTRY                   ADDRESS         REF BY
           =====                   =======         ======
           USS_updateSDHSConfiguration
                                   AF3C            USS_configureUltrasonicMeasurement (ussSwLibMeasurement)
               calls direct
    -------------------------------------------------------------------------
<CODE> 1 (was CODE)
  Relative segment, address: 9612 - 9715 (0x104 bytes), align: 1
  Segment part 17.
           ENTRY                   ADDRESS         REF BY
           =====                   =======         ======
           USS_updateHSPLLConfiguration
                                   9612            USS_configureUltrasonicMeasurement (ussSwLibMeasurement)
               calls direct
    -------------------------------------------------------------------------
<CODE> 1 (was CODE)
  Relative segment, address: 81DA - 8391 (0x1b8 bytes), align: 1
  Segment part 18.
           ENTRY                   ADDRESS         REF BY
           =====                   =======         ======
           USS_updateSAPHConfiguration
                                   81DA            USS_configureUltrasonicMeasurement (ussSwLibMeasurement)
               calls direct
    -------------------------------------------------------------------------
<CODE> 1 (was CODE)
  Relative segment, address: D5E0 - D5E9 (0xa bytes), align: 1
  Segment part 22.            Intra module refs:   USS_resetUSSModule
                                                   USS_updateSAPHConfiguration
           LOCAL                   ADDRESS         
           =====                   =======         
           ?Subroutine0            D5E0 
    -------------------------------------------------------------------------
<CODE> 1 (was CODE)
  Relative segment, address: CEDA - CEF7 (0x1e bytes), align: 1
  Segment part 19.
           ENTRY                   ADDRESS         REF BY
           =====                   =======         ======
           USS_updateUUPSConfiguration
                                   CEDA            USS_configureUltrasonicMeasurement (ussSwLibMeasurement)
    -------------------------------------------------------------------------
<CODE> 1 (was CODE)
  Relative segment, address: BE80 - BECB (0x4c bytes), align: 1
  Segment part 20.
           ENTRY                   ADDRESS         REF BY
           =====                   =======         ======
           USS_updateUSSInterruptsConfiguration
                                   BE80            USS_configureUltrasonicMeasurement (ussSwLibMeasurement)
    -------------------------------------------------------------------------
<CODE> 1 (was CODE)
  Relative segment, address: C528 - C55D (0x36 bytes), align: 1
  Segment part 21.
           ENTRY                   ADDRESS         REF BY
           =====                   =======         ======
           USS_resetUSSModule      C528            USSLibGUIApp_Engine (USSLibGUIApp)
               calls direct

    *************************************************************************

  FILE NAME : C:\Git\msp430-uss-library\Library\src\examples\USS_Water_Demo\IAR\LPM\Obj\ussSwLibISR.r43
  PROGRAM MODULE, NAME : ussSwLibISR

  SEGMENTS IN THE MODULE
  ======================
DATA20_Z
  Relative segment, address: 1E9E - 1EA1 (0x4 bytes), align: 1
  Segment part 2.
           ENTRY                   ADDRESS         REF BY
           =====                   =======         ======
           USSSWLIB_USS_interrupt_status
                                   1E9E            ?Subroutine0 (ussSwLibMeasurement)
                                                   ?Subroutine3 (ussSwLibCommonTimer)
                                                   ISR_HSPLL (USS_Lib_HAL)
                                                   ISR_SAPH (USS_Lib_HAL)
                                                   ISR_SDHS (USS_Lib_HAL)
                                                   ISR_UUPS (USS_Lib_HAL)
                                                   USSLIB_HAL_TIMER_INT (USS_Lib_HAL)
                                                   USSLIB_HAL_TIMER_INT_CCRn (USS_Lib_HAL)
                                                   USSLibGUIApp_Engine (USSLibGUIApp)
                                                   USSLibGUIApp_Init (USSLibGUIApp)
                                                   USS_updateUSSInterruptsConfiguration (ussSwLibConfiguration)
                                                   commonIsconversionSuccessfull (ussSwLibCommonUSS)
                                                   commonTimerGenerateLowPowerDelay (ussSwLibCommonTimer)
                                                   commonTimerWaitEvent (ussSwLibCommonTimer)
                                                   commonTimerWaitTickEvent (ussSwLibCommonTimer)
                                                   commonWaitForconversion (ussSwLibCommonUSS)

    *************************************************************************

  FILE NAME : C:\Git\msp430-uss-library\Library\src\examples\USS_Water_Demo\IAR\LPM\Obj\ussSwLibMeasurement.r43
  PROGRAM MODULE, NAME : ussSwLibMeasurement

  SEGMENTS IN THE MODULE
  ======================
<CODE> 1 (was CODE)
  Relative segment, address: C08C - C0D5 (0x4a bytes), align: 1
  Segment part 7.
           ENTRY                   ADDRESS         REF BY
           =====                   =======         ======
           USS_configureUltrasonicMeasurement
                                   C08C            ?Subroutine0 (USSLibGUIApp)
                                                   USS_resetUSSModule (ussSwLibConfiguration)
               calls direct
    -------------------------------------------------------------------------
<CODE> 1 (was CODE)
  Relative segment, address: D5B8 - D5C1 (0xa bytes), align: 1
  Segment part 14.            Intra module refs:   USS_commonTriggerSingleCapture
           LOCAL                   ADDRESS         
           =====                   =======         
           ?Subroutine1            D5B8 
    -------------------------------------------------------------------------
<CODE> 1 (was CODE)
  Relative segment, address: D2B6 - D2C7 (0x12 bytes), align: 1
  Segment part 15.            Intra module refs:   USS_commonTriggerSingleCapture
           LOCAL                   ADDRESS         
           =====                   =======         
           ?Subroutine0            D2B6 
    -------------------------------------------------------------------------
<CODE> 1 (was CODE)
  Relative segment, address: D370 - D37F (0x10 bytes), align: 1
  Segment part 11.
           ENTRY                   ADDRESS         REF BY
           =====                   =======         ======
           USS_configAppTimerPeriod
                                   D370            HMI_updateUSSParameters (hmi)
                                                   USSLibGUIApp_Init (USSLibGUIApp)
               calls direct
    -------------------------------------------------------------------------
<CODE> 1 (was CODE)
  Relative segment, address: D25C - D26D (0x12 bytes), align: 1
  Segment part 12.
           ENTRY                   ADDRESS         REF BY
           =====                   =======         ======
           USS_waitForAppTimerElapse
                                   D25C            USSLibGUIApp_Engine (USSLibGUIApp)
               calls direct
    -------------------------------------------------------------------------
<CODE> 1 (was CODE)
  Relative segment, address: A6CA - A777 (0xae bytes), align: 1
  Segment part 13.            Intra module refs:   USS_startLowPowerUltrasonicCapture
           ENTRY                   ADDRESS         REF BY
           =====                   =======         ======
           USS_commonTriggerSingleCapture
                                   A6CA 
               calls direct
    -------------------------------------------------------------------------
<CODE> 1 (was CODE)
  Relative segment, address: B73A - B7A1 (0x68 bytes), align: 1
  Segment part 16.
           ENTRY                   ADDRESS         REF BY
           =====                   =======         ======
           USS_startLowPowerUltrasonicCapture
                                   B73A            USSLibGUIApp_Engine (USSLibGUIApp)
               calls direct

    *************************************************************************

  FILE NAME : C:\Git\msp430-uss-library\Library\src\examples\USS_Water_Demo\IAR\LPM\Obj\ussSwLibTemperature.r43
    *************************************************************************

  FILE NAME : C:\Git\msp430-uss-library\Library\src\examples\USS_Water_Demo\IAR\LPM\Obj\ussSwLibVFRCalib.r43
  PROGRAM MODULE, NAME : ussSwLibVFRCalib

  SEGMENTS IN THE MODULE
  ======================
<CODE> 1 (was CODE)
  Relative segment, address: D12C - D143 (0x18 bytes), align: 1
  Segment part 2.
           ENTRY                   ADDRESS         REF BY
           =====                   =======         ======
           USS_calibrateVolumeFlowRate
                                   D12C            HMI_PostAlgorithm_Update (hmi)
               calls direct

    *************************************************************************

  FILE NAME : C:\Git\msp430-uss-library\Library\src\examples\USS_Water_Demo\IAR\LPM\Obj\ussSwLibVFRCalibFlow.r43
  PROGRAM MODULE, NAME : ussSwLibVFRCalibFlow

  SEGMENTS IN THE MODULE
  ======================
<CODE> 1 (was CODE)
  Relative segment, address: B7A2 - B807 (0x66 bytes), align: 1
  Segment part 2.             Intra module refs:   USS_calibrateVFRFlow
           ENTRY                   ADDRESS         REF BY
           =====                   =======         ======
           USS_findMeterConstantRange
                                   B7A2 
               calls direct
    -------------------------------------------------------------------------
<CODE> 1 (was CODE)
  Relative segment, address: B2BA - B333 (0x7a bytes), align: 1
  Segment part 3.
           ENTRY                   ADDRESS         REF BY
           =====                   =======         ======
           USS_calibrateVFRFlow    B2BA            USS_calibrateVolumeFlowRate (ussSwLibVFRCalib)
               calls direct

    *************************************************************************

  FILE NAME : C:\Git\msp430-uss-library\Library\src\examples\USS_Water_Demo\IAR\LPM\Obj\ussSwLibVFRCalibFlowTemperature.r43
    *************************************************************************

  FILE NAME : C:\Git\msp430-uss-library\Library\src\examples\USS_Water_Demo\IAR\LPM\Obj\uups.r43
    *************************************************************************

  FILE NAME : C:\Git\msp430-uss-library\Library\src\examples\USS_Water_Demo\IAR\LPM\Obj\wdt_a.r43
  PROGRAM MODULE, NAME : wdt_a

  SEGMENTS IN THE MODULE
  ======================
<CODE> 1 (was CODE)
  Relative segment, address: CFBE - CFC7 (0xa bytes), align: 1
  Segment part 3.             Intra module refs:   WDT_A_resetTimer
                                                   WDT_A_start
           LOCAL                   ADDRESS         
           =====                   =======         
           ?Subroutine0            CFBE 
    -------------------------------------------------------------------------
<CODE> 1 (was CODE)
  Relative segment, address: CFC8 - CFD1 (0xa bytes), align: 1
  Segment part 4.
           ENTRY                   ADDRESS         REF BY
           =====                   =======         ======
           WDT_A_start             CFC8            hal_system_WatchdogInit (hal_system)
    -------------------------------------------------------------------------
<CODE> 1 (was CODE)
  Relative segment, address: CFD2 - CFD9 (0x8 bytes), align: 1
  Segment part 5.
           ENTRY                   ADDRESS         REF BY
           =====                   =======         ======
           WDT_A_resetTimer        CFD2            hal_system_WatchdogFeed (hal_system)
    -------------------------------------------------------------------------
<CODE> 1 (was CODE)
  Relative segment, address: D3A0 - D3A9 (0xa bytes), align: 1
  Segment part 6.
           ENTRY                   ADDRESS         REF BY
           =====                   =======         ======
           WDT_A_initWatchdogTimer
                                   D3A0            hal_system_WatchdogInit (hal_system)
    -------------------------------------------------------------------------
<CODE> 1 (was CODE)
  Relative segment, address: D3AA - D3AF (0x6 bytes), align: 1
  Segment part 7.             Intra module refs:   WDT_A_initWatchdogTimer
           LOCAL                   ADDRESS         
           =====                   =======         
           ?Subroutine1            D3AA 

    *************************************************************************

  FILE NAME : C:\Program Files (x86)\IAR Systems\Embedded Workbench 8.0\430\lib\dlib\dl430xllfn.r43
  LIBRARY MODULE, NAME : ?__dbg_break

  SEGMENTS IN THE MODULE
  ======================
<CODE> 1 (was CODE)
  Relative segment, address: D6C8 - D6C9 (0x2 bytes), align: 1
  Segment part 2.
           ENTRY                   ADDRESS         REF BY
           =====                   =======         ======
           __DebugBreak            D6C8            __exit (?__exit)

    -------------------------------------------------------------------------
  LIBRARY MODULE, NAME : ?__exit

  SEGMENTS IN THE MODULE
  ======================
<CODE> 1 (was CODE)
  Relative segment, address: D1C8 - D1DB (0x14 bytes), align: 1
  Segment part 2.
           ENTRY                   ADDRESS         REF BY
           =====                   =======         ======
           __exit                  D1C8            Segment part 6 (?_exit)
                                                   _exit (?_exit)
               calls direct

    -------------------------------------------------------------------------
  LIBRARY MODULE, NAME : ?_exit

  SEGMENTS IN THE MODULE
  ======================
<CODE> 1 (was CODE)
  Relative segment, address: D6B8, align: 1
  Segment part 0.
           ENTRY                   ADDRESS         REF BY
           =====                   =======         ======
           _exit                   D6B8            exit (?exit)
    -------------------------------------------------------------------------
<CODE> 1 (was CODE)
  Relative segment, address: D6B8 - D6BB (0x4 bytes), align: 1
  Segment part 6.             Intra module refs:   _exit

    -------------------------------------------------------------------------
  LIBRARY MODULE, NAME : ?cstart

  SEGMENTS IN THE MODULE
  ======================
CSTACK
  Relative segment, address: 2A00, align: 1
  Segment part 1.
    -------------------------------------------------------------------------
CODE_I
  Relative segment, address: 1C00, align: 1
  Segment part 5.
    -------------------------------------------------------------------------
CODE_ID
  Relative segment, address: DE52, align: 1
  Segment part 6.
    -------------------------------------------------------------------------
DATA20_Z
  Relative segment, address: 1EA2, align: 1
  Segment part 7.
    -------------------------------------------------------------------------
DATA20_I
  Relative segment, address: 1C06, align: 1
  Segment part 8.
    -------------------------------------------------------------------------
DATA20_ID
  Relative segment, address: DE50, align: 1
  Segment part 9.
    -------------------------------------------------------------------------
DATA20_C
  Relative segment, address: DC0C, align: 1
  Segment part 10.
    -------------------------------------------------------------------------
DATA20_N
  Relative segment, address: 24AA, align: 1
  Segment part 12.
    -------------------------------------------------------------------------
CSTART
  Relative segment, address: 504A - 504D (0x4 bytes), align: 1
  Segment part 15.
           ENTRY                   ADDRESS         REF BY
           =====                   =======         ======
           __program_start         504A            ?reset_vector (?reset_vector)
                                                   Absolute parts (?ABS_ENTRY_MOD)
           ?cstart_begin           504A 
    -------------------------------------------------------------------------
CSTART
  Relative segment, address: 504E - 5055 (0x8 bytes), align: 1
  Segment part 18.
           ENTRY                   ADDRESS         REF BY
           =====                   =======         ======
           ?cstart_call_low_level_init
                                   504E            __low_level_init (system_pre_init)
    -------------------------------------------------------------------------
CSTART
  Relative segment, address: 5056 - 5065 (0x10 bytes), align: 1
  Segment part 22.
           ENTRY                   ADDRESS         REF BY
           =====                   =======         ======
           ?cstart_init_zero20     5056            Comm_i2cSlaveRxBuffer (comm)
                                                   Comm_listenerTable (comm_config)
                                                   Comm_receiveBuffer (comm_config)
                                                   Comm_receiveQueue (comm_config)
                                                   Comm_transmitBuffer (comm_config)
                                                   DC_User_Params (hmi)
                                                   LCDMemMap (hal_lcd)
                                                   Packet_extractFromStream::detectedStuffedByte (packet)
                                                   Segment part 6 (ussSwLibAlgorithms)
                                                   Segment part 7 (ussSwLibAlgorithms)
                                                   USSSWLIB_USS_interrupt_status (ussSwLibISR)
                                                   USSSWLIB_USS_measurementPeriod (USS_Lib_HAL)
                                                   USS_LEA_IFG (USS_lea)
                                                   cal_adc_ptr (hal_adc)
                                                   cal_ref_ptr (hal_adc)
                                                   datapointIndex (results)
                                                   gCommandHandler (ussDCCommandHandlers)
                                                   gRXUpdateFlag (ussDCCommandHandlers)
                                                   gUSSAlgObject (ussSwLibAlgorithms)
                                                   g_I2CSlaveStatus (i2cslave)
                                                   g_bI2CSlaveRequestPending (i2cslave)
                                                   g_pFunctionTimer (timeout)
                                                   g_pI2CSlavePort (i2cslave)
                                                   g_pI2CTransmitBuffer (i2cslave)
                                                   g_ui16I2CIndex (i2cslave)
                                                   g_ui16I2CLength (i2cslave)
                                                   guRxData (hal_uart)
                                                   i16max_amplitude (testing)
                                                   privateHFXTClockFrequency (cs)
                                                   privateLFXTClockFrequency (cs)
                                                   state (ussSwLibAlgorithms)
                                                   temp_const (hal_adc)
                                                   temp_sensor_raw (hal_adc)
                                                   temp_sensor_rdy (hal_adc)
                                                   volt_supply_raw (hal_adc)
                                                   volt_supply_rdy (hal_adc)
    -------------------------------------------------------------------------
CSTART
  Relative segment, address: 5066 - 5079 (0x14 bytes), align: 1
  Segment part 23.
           ENTRY                   ADDRESS         REF BY
           =====                   =======         ======
           ?cstart_init_copy20     5066            Comm_listenerConfig (comm_config)
                                                   Packet_extractFromStream::currIndex (packet)
    -------------------------------------------------------------------------
CSTART
  Relative segment, address: 507A - 5081 (0x8 bytes), align: 1
  Segment part 27.            Intra module refs:   ?cstart_call_low_level_init
                                                   Segment part 15
           ENTRY                   ADDRESS         REF BY
           =====                   =======         ======
           ?cstart_call_main       507A 
           ?cstart_end             5082 
    -------------------------------------------------------------------------
CODE_ID
  Relative segment, address: DE52, align: 1
  Segment part 28.            Intra module refs:   Segment part 5

    -------------------------------------------------------------------------
  LIBRARY MODULE, NAME : ?reset_vector

  SEGMENTS IN THE MODULE
  ======================
RESET
  Relative segment, address: FFFE - FFFF (0x2 bytes), align: 1
  Segment part 0.
           ENTRY                   ADDRESS         REF BY
           =====                   =======         ======
           ?reset_vector           FFFE            Segment part 15 (?cstart)

    -------------------------------------------------------------------------
  LIBRARY MODULE, NAME : ?div64i

  SEGMENTS IN THE MODULE
  ======================
<CODE> 1 (was CODE)
  Relative segment, address: A976 - AA17 (0xa2 bytes), align: 1
  Segment part 2.
           ENTRY                   ADDRESS         REF BY
           =====                   =======         ======
           _Div64u                 A976            ?Subroutine0 (ussSwLibCommonSAPH)
    -------------------------------------------------------------------------
<CODE> 1 (was CODE)
  Relative segment, address: B586 - B5F5 (0x70 bytes), align: 1
  Segment part 3.
           ENTRY                   ADDRESS         REF BY
           =====                   =======         ======
           _Mod64u                 B586            ?Subroutine1 (ussSwLibCommonSAPH)
    -------------------------------------------------------------------------
<CODE> 1 (was CODE)
  Relative segment, address: D048 - D061 (0x1a bytes), align: 1
  Segment part 4.             Intra module refs:   _Div64u
                                                   _Mod64u

    -------------------------------------------------------------------------
  LIBRARY MODULE, NAME : ?exit

  SEGMENTS IN THE MODULE
  ======================
<CODE> 1 (was CODE)
  Relative segment, address: D6B4 - D6B7 (0x4 bytes), align: 1
  Segment part 2.
           ENTRY                   ADDRESS         REF BY
           =====                   =======         ======
           exit                    D6B4            Segment part 27 (?cstart)
               calls direct

    -------------------------------------------------------------------------
  LIBRARY MODULE, NAME : ?Mul32fHw32

  SEGMENTS IN THE MODULE
  ======================
<CODE> 1 (was CODE)
  Relative segment, address: 8E9E - 8FB3 (0x116 bytes), align: 1
  Segment part 0.
           ENTRY                   ADDRESS         REF BY
           =====                   =======         ======
           ?Mul32fHw32             8E9E            ?Subroutine1 (hmi)
                                                   ?Subroutine8 (hmi)
                                                   ?Subroutine9 (ussDCCommandHandlers)
                                                   HMI_update_USSalgorithmsConfig (hmi)
                                                   HMI_update_USSmeasurementConfig (hmi)
                                                   Segment part 12 (hmi)
                                                   Segment part 13 (mathematics)
                                                   Segment part 14 (ussSwLibAlgorithms)
                                                   Segment part 3 (USS_init)
                                                   Segment part 3 (USS_updateADCParams)
                                                   Segment part 6 (USS_init)
                                                   Segment part 6 (USS_updateADCParams)
                                                   Segment part 7 (USS_init)
                                                   USS_init (USS_init)
                                                   USS_updateClockRelativeError (ussSwLibAlgorithms)
                                                   mathematics_CalcStDevflt (mathematics)
                                                   mathematics_FloatToString (mathematics)
                                                   privateGeneratePattern (ussSwLibAlgorithms)
                                                   resultsCalcVolume (results)
                                                   timeToPLLCycles (hmi)

    -------------------------------------------------------------------------
  LIBRARY MODULE, NAME : ?Cast32f32i

  SEGMENTS IN THE MODULE
  ======================
<CODE> 1 (was CODE)
  Relative segment, address: ABE8 - ABFB (0x14 bytes), align: 1
  Segment part 0.
           ENTRY                   ADDRESS         REF BY
           =====                   =======         ======
           _Cast32sto32f           ABE8            ?Subroutine0 (mathematics)
                                                   ?Subroutine2 (hmi)
                                                   ?Subroutine8 (hmi)
                                                   HMI_update_USSalgorithmsConfig (hmi)
                                                   HMI_update_USScaptureConfig (hmi)
                                                   Testing_Update_Results (testing)
    -------------------------------------------------------------------------
<CODE> 1 (was CODE)
  Relative segment, address: ABFC - AC79 (0x7e bytes), align: 1
  Segment part 1.             Intra module refs:   _Cast32sto32f
           ENTRY                   ADDRESS         REF BY
           =====                   =======         ======
           _Cast32uto32f           ABFC            ?Subroutine1 (mathematics)
                                                   ?Subroutine4 (hmi)
                                                   Segment part 12 (hmi)
                                                   Segment part 16 (ussSwLibAlgorithms)
                                                   Segment part 3 (USS_init)
                                                   Segment part 3 (USS_updateADCParams)
                                                   Segment part 37 (ussSwLibAlgorithms)
                                                   Segment part 7 (USS_init)
                                                   USS_generateMonoDualToneBinaryPattern (ussSwLibAlgorithms)
                                                   USS_init (USS_init)
                                                   USS_initAlgorithms (ussSwLibAlgorithms)
                                                   hal_adc_init (hal_adc)
                                                   privateGeneratePattern (ussSwLibAlgorithms)
                                                   resultsCalcVolume (results)

    -------------------------------------------------------------------------
  LIBRARY MODULE, NAME : _Cast32fto32u

  SEGMENTS IN THE MODULE
  ======================
<CODE> 1 (was CODE)
  Relative segment, address: D524 - D52F (0xc bytes), align: 1
  Segment part 0.
           ENTRY                   ADDRESS         REF BY
           =====                   =======         ======
           _Cast32fto32u           D524            Segment part 40 (ussSwLibAlgorithms)
                                                   USS_initAlgorithms (ussSwLibAlgorithms)
                                                   privateGeneratePattern (ussSwLibAlgorithms)
                                                   timeToPLLCycles (hmi)

    -------------------------------------------------------------------------
  LIBRARY MODULE, NAME : _Cast32fto32s

  SEGMENTS IN THE MODULE
  ======================
<CODE> 1 (was CODE)
  Relative segment, address: C5C8 - C5F9 (0x32 bytes), align: 1
  Segment part 0.
           ENTRY                   ADDRESS         REF BY
           =====                   =======         ======
           _Cast32fto32s           C5C8            ?Subroutine9 (ussDCCommandHandlers)
                                                   HMI_updateUSSParameters (hmi)
                                                   HMI_update_USScaptureConfig (hmi)
                                                   HMI_update_USSmeasurementConfig (hmi)
                                                   Segment part 6 (USS_init)
                                                   Segment part 6 (USS_updateADCParams)
                                                   Segment part 7 (USS_init)
                                                   USS_init (USS_init)
                                                   mathematics_FloatToString (mathematics)

    -------------------------------------------------------------------------
  LIBRARY MODULE, NAME : ?FLT_Extract

  SEGMENTS IN THE MODULE
  ======================
<CODE> 1 (was CODE)
  Relative segment, address: BECC - BF17 (0x4c bytes), align: 1
  Segment part 0.
           ENTRY                   ADDRESS         REF BY
           =====                   =======         ======
           ?FLT_Extract            BECC            _Cast32fto32s (_Cast32fto32s)
                                                   _Cast32fto32u (_Cast32fto32u)

    -------------------------------------------------------------------------
  LIBRARY MODULE, NAME : ?FLT_GE

  SEGMENTS IN THE MODULE
  ======================
<CODE> 1 (was CODE)
  Relative segment, address: BB98 - BBED (0x56 bytes), align: 1
  Segment part 0.
           ENTRY                   ADDRESS         REF BY
           =====                   =======         ======
           ?FLT_GE                 BB98            HMI_guiInputValidation (hmi)
                                                   HMI_updateUSSParameters (hmi)
                                                   privateGeneratePattern (ussSwLibAlgorithms)

    -------------------------------------------------------------------------
  LIBRARY MODULE, NAME : ?FLT_LT

  SEGMENTS IN THE MODULE
  ======================
<CODE> 1 (was CODE)
  Relative segment, address: BCEE - BD3F (0x52 bytes), align: 1
  Segment part 0.
           ENTRY                   ADDRESS         REF BY
           =====                   =======         ======
           ?FLT_LT                 BCEE            HMI_guiInputValidation (hmi)
                                                   mathematics_FloatToString (mathematics)
                                                   privateGeneratePattern (ussSwLibAlgorithms)

    -------------------------------------------------------------------------
  LIBRARY MODULE, NAME : _Div32f

  SEGMENTS IN THE MODULE
  ======================
<CODE> 1 (was CODE)
  Relative segment, address: 8D6E - 8E9D (0x130 bytes), align: 1
  Segment part 0.
           ENTRY                   ADDRESS         REF BY
           =====                   =======         ======
           _Div32f                 8D6E            HMI_update_USSalgorithmsConfig (hmi)
                                                   Segment part 11 (ussSwLibAlgorithms)
                                                   Segment part 39 (ussSwLibAlgorithms)
                                                   Segment part 40 (ussSwLibAlgorithms)
                                                   USS_init (USS_init)
                                                   USS_initAlgorithms (ussSwLibAlgorithms)
                                                   hal_adc_init (hal_adc)
                                                   mathematics_CalcAverageflt (mathematics)
                                                   mathematics_CalcStDevflt (mathematics)
                                                   privateGeneratePattern (ussSwLibAlgorithms)
                                                   resultsCalcVolume (results)
                                                   timeToPLLCycles (hmi)

    -------------------------------------------------------------------------
  LIBRARY MODULE, NAME : _Add32f

  SEGMENTS IN THE MODULE
  ======================
<CODE> 1 (was CODE)
  Relative segment, address: 898A - 898D (0x4 bytes), align: 1
  Segment part 0.
           ENTRY                   ADDRESS         REF BY
           =====                   =======         ======
           _Sub32f                 898A            ?Subroutine0 (mathematics)
                                                   Segment part 4 (USS_init)
                                                   Segment part 4 (USS_updateADCParams)
                                                   USS_updateClockRelativeError (ussSwLibAlgorithms)
                                                   mathematics_CalcStDevflt (mathematics)
                                                   privateGeneratePattern (ussSwLibAlgorithms)
    -------------------------------------------------------------------------
<CODE> 1 (was CODE)
  Relative segment, address: 898E - 8AED (0x160 bytes), align: 1
  Segment part 1.             Intra module refs:   _Sub32f
           ENTRY                   ADDRESS         REF BY
           =====                   =======         ======
           _Add32f                 898E            Segment part 10 (ussSwLibAlgorithms)
                                                   Segment part 40 (ussSwLibAlgorithms)
                                                   USS_init (USS_init)
                                                   USS_updateADCParams (USS_updateADCParams)
                                                   mathematics_CalcAverageflt (mathematics)
                                                   mathematics_CalcStDevflt (mathematics)
                                                   results_Update (results)
                                                   round (?round)

    -------------------------------------------------------------------------
  LIBRARY MODULE, NAME : ?DivMod816u

  SEGMENTS IN THE MODULE
  ======================
<CODE> 1 (was CODE)
  Relative segment, address: D114 - D12B (0x18 bytes), align: 1
  Segment part 1.
           ENTRY                   ADDRESS         REF BY
           =====                   =======         ======
           ?DivMod16u              D114            ?DivMod16s (?DivMod816s)
                                                   CommandHandler_transmitCaptures (ussDCCommandHandlers)

    -------------------------------------------------------------------------
  LIBRARY MODULE, NAME : ?DivMod816s

  SEGMENTS IN THE MODULE
  ======================
<CODE> 1 (was CODE)
  Relative segment, address: C720 - C74F (0x30 bytes), align: 1
  Segment part 1.
           ENTRY                   ADDRESS         REF BY
           =====                   =======         ======
           ?DivMod16s              C720            USS_findMeterConstantRange (ussSwLibVFRCalibFlow)
                                                   mathematics_IntToStr (mathematics)

    -------------------------------------------------------------------------
  LIBRARY MODULE, NAME : ?DivMod32u

  SEGMENTS IN THE MODULE
  ======================
<CODE> 1 (was CODE)
  Relative segment, address: C6F0 - C71F (0x30 bytes), align: 1
  Segment part 0.
           ENTRY                   ADDRESS         REF BY
           =====                   =======         ======
           ?DivMod32u              C6F0            ?DivMod32s (?DivMod32s)
                                                   ?Subroutine5 (hmi)
                                                   ?Subroutine6 (hmi)
                                                   Segment part 18 (ussSwLibAlgorithms)
                                                   commonValidateSAPHconfigruation (ussSwLibCommonSAPH)
                                                   mathematics_CalcPercentage (mathematics)

    -------------------------------------------------------------------------
  LIBRARY MODULE, NAME : ?DivMod32s

  SEGMENTS IN THE MODULE
  ======================
<CODE> 1 (was CODE)
  Relative segment, address: C2AA - C2E9 (0x40 bytes), align: 1
  Segment part 0.
           ENTRY                   ADDRESS         REF BY
           =====                   =======         ======
           ?DivMod32s              C2AA            USS_generateWindow (USS_computeDeltaTOF_estimate)
                                                   commonValidateSAPHconfigruation (ussSwLibCommonSAPH)

    -------------------------------------------------------------------------
  LIBRARY MODULE, NAME : ?ShiftLeft32

  SEGMENTS IN THE MODULE
  ======================
<CODE> 1 (was CODE)
  Relative segment, address: D238 - D23B (0x4 bytes), align: 1
  Segment part 4.
           ENTRY                   ADDRESS         REF BY
           =====                   =======         ======
           ?ShiftLeft32_4          D238            USS_generateWindow (USS_computeDeltaTOF_estimate)
    -------------------------------------------------------------------------
<CODE> 1 (was CODE)
  Relative segment, address: D23C - D249 (0xe bytes), align: 1
  Segment part 5.             Intra module refs:   ?ShiftLeft32_4
           ENTRY                   ADDRESS         REF BY
           =====                   =======         ======
           ?ShiftLeft32_3          D23C            ?Subroutine7 (hmi)

    -------------------------------------------------------------------------
  LIBRARY MODULE, NAME : ?ShiftLeft32_8n

  SEGMENTS IN THE MODULE
  ======================
<CODE> 1 (was CODE)
  Relative segment, address: CFA2 - CFA5 (0x4 bytes), align: 1
  Segment part 2.
           ENTRY                   ADDRESS         REF BY
           =====                   =======         ======
           ?ShiftLeft32_12         CFA2            USS_generateWindow (USS_computeDeltaTOF_estimate)
    -------------------------------------------------------------------------
<CODE> 1 (was CODE)
  Relative segment, address: CFA6 - CFA9 (0x4 bytes), align: 1
  Segment part 3.             Intra module refs:   ?ShiftLeft32_12
           ENTRY                   ADDRESS         REF BY
           =====                   =======         ======
           ?ShiftLeft32_11         CFA6 
    -------------------------------------------------------------------------
<CODE> 1 (was CODE)
  Relative segment, address: CFAA - CFAD (0x4 bytes), align: 1
  Segment part 4.             Intra module refs:   ?ShiftLeft32_11
           ENTRY                   ADDRESS         REF BY
           =====                   =======         ======
           ?ShiftLeft32_10         CFAA 
    -------------------------------------------------------------------------
<CODE> 1 (was CODE)
  Relative segment, address: CFAE - CFB1 (0x4 bytes), align: 1
  Segment part 5.             Intra module refs:   ?ShiftLeft32_10
           ENTRY                   ADDRESS         REF BY
           =====                   =======         ======
           ?ShiftLeft32_9          CFAE 
    -------------------------------------------------------------------------
<CODE> 1 (was CODE)
  Relative segment, address: CFB2 - CFBD (0xc bytes), align: 1
  Segment part 6.             Intra module refs:   ?ShiftLeft32_9
           ENTRY                   ADDRESS         REF BY
           =====                   =======         ======
           ?ShiftLeft32_8          CFB2 

    -------------------------------------------------------------------------
  LIBRARY MODULE, NAME : ?ShiftLeft64_n

  SEGMENTS IN THE MODULE
  ======================
<CODE> 1 (was CODE)
  Relative segment, address: CC48 - CC4F (0x8 bytes), align: 1
  Segment part 3.
           ENTRY                   ADDRESS         REF BY
           =====                   =======         ======
           ?ShiftLeft64_4          CC48            ?Subroutine0 (ussSwLibCommonSAPH)
    -------------------------------------------------------------------------
<CODE> 1 (was CODE)
  Relative segment, address: CC50 - CC69 (0x1a bytes), align: 1
  Segment part 4.             Intra module refs:   ?ShiftLeft64_4
           ENTRY                   ADDRESS         REF BY
           =====                   =======         ======
           ?ShiftLeft64_3          CC50 

    -------------------------------------------------------------------------
  LIBRARY MODULE, NAME : ?ShiftRight32s

  SEGMENTS IN THE MODULE
  ======================
<CODE> 1 (was CODE)
  Relative segment, address: D2EC - D2EF (0x4 bytes), align: 1
  Segment part 4.
           ENTRY                   ADDRESS         REF BY
           =====                   =======         ======
           ?ShiftRight32s_4        D2EC            commonValidateSAPHconfigruation (ussSwLibCommonSAPH)
    -------------------------------------------------------------------------
<CODE> 1 (was CODE)
  Relative segment, address: D2F0 - D2F3 (0x4 bytes), align: 1
  Segment part 5.             Intra module refs:   ?ShiftRight32s_4
           ENTRY                   ADDRESS         REF BY
           =====                   =======         ======
           ?ShiftRight32s_3        D2F0 
    -------------------------------------------------------------------------
<CODE> 1 (was CODE)
  Relative segment, address: D2F4 - D2FD (0xa bytes), align: 1
  Segment part 6.             Intra module refs:   ?ShiftRight32s_3
           ENTRY                   ADDRESS         REF BY
           =====                   =======         ======
           ?ShiftRight32s_2        D2F4 

    -------------------------------------------------------------------------
  LIBRARY MODULE, NAME : ?ShiftRight32s_8n

  SEGMENTS IN THE MODULE
  ======================
<CODE> 1 (was CODE)
  Relative segment, address: CFDA - CFDD (0x4 bytes), align: 1
  Segment part 2.
           ENTRY                   ADDRESS         REF BY
           =====                   =======         ======
           ?ShiftRight32s_12       CFDA            USS_generateWindow (USS_computeDeltaTOF_estimate)
    -------------------------------------------------------------------------
<CODE> 1 (was CODE)
  Relative segment, address: CFDE - CFE1 (0x4 bytes), align: 1
  Segment part 3.             Intra module refs:   ?ShiftRight32s_12
           ENTRY                   ADDRESS         REF BY
           =====                   =======         ======
           ?ShiftRight32s_11       CFDE 
    -------------------------------------------------------------------------
<CODE> 1 (was CODE)
  Relative segment, address: CFE2 - CFE5 (0x4 bytes), align: 1
  Segment part 4.             Intra module refs:   ?ShiftRight32s_11
           ENTRY                   ADDRESS         REF BY
           =====                   =======         ======
           ?ShiftRight32s_10       CFE2 
    -------------------------------------------------------------------------
<CODE> 1 (was CODE)
  Relative segment, address: CFE6 - CFE9 (0x4 bytes), align: 1
  Segment part 5.             Intra module refs:   ?ShiftRight32s_10
           ENTRY                   ADDRESS         REF BY
           =====                   =======         ======
           ?ShiftRight32s_9        CFE6 
    -------------------------------------------------------------------------
<CODE> 1 (was CODE)
  Relative segment, address: CFEA - CFF5 (0xc bytes), align: 1
  Segment part 6.             Intra module refs:   ?ShiftRight32s_9
           ENTRY                   ADDRESS         REF BY
           =====                   =======         ======
           ?ShiftRight32s_8        CFEA 

    -------------------------------------------------------------------------
  LIBRARY MODULE, NAME : ?ShiftRight32u

  SEGMENTS IN THE MODULE
  ======================
<CODE> 1 (was CODE)
  Relative segment, address: D2A4 - D2A7 (0x4 bytes), align: 1
  Segment part 4.
           ENTRY                   ADDRESS         REF BY
           =====                   =======         ======
           ?ShiftRight32u_4        D2A4            USS_initAlgorithms (ussSwLibAlgorithms)
                                                   USS_updateClockRelativeError (ussSwLibAlgorithms)
    -------------------------------------------------------------------------
<CODE> 1 (was CODE)
  Relative segment, address: D2A8 - D2AB (0x4 bytes), align: 1
  Segment part 5.             Intra module refs:   ?ShiftRight32u_4
           ENTRY                   ADDRESS         REF BY
           =====                   =======         ======
           ?ShiftRight32u_3        D2A8            USS_initAlgorithms (ussSwLibAlgorithms)
                                                   USS_updateClockRelativeError (ussSwLibAlgorithms)
    -------------------------------------------------------------------------
<CODE> 1 (was CODE)
  Relative segment, address: D2AC - D2B5 (0xa bytes), align: 1
  Segment part 6.             Intra module refs:   ?ShiftRight32u_3
           ENTRY                   ADDRESS         REF BY
           =====                   =======         ======
           ?ShiftRight32u_2        D2AC 

    -------------------------------------------------------------------------
  LIBRARY MODULE, NAME : ?ShiftRight32u_8n

  SEGMENTS IN THE MODULE
  ======================
<CODE> 1 (was CODE)
  Relative segment, address: CFF6 - CFF9 (0x4 bytes), align: 1
  Segment part 2.
           ENTRY                   ADDRESS         REF BY
           =====                   =======         ======
           ?ShiftRight32u_12       CFF6            hal_adc_voltagesupply_readmV (hal_adc)
    -------------------------------------------------------------------------
<CODE> 1 (was CODE)
  Relative segment, address: CFFA - CFFD (0x4 bytes), align: 1
  Segment part 3.             Intra module refs:   ?ShiftRight32u_12
           ENTRY                   ADDRESS         REF BY
           =====                   =======         ======
           ?ShiftRight32u_11       CFFA 
    -------------------------------------------------------------------------
<CODE> 1 (was CODE)
  Relative segment, address: CFFE - D001 (0x4 bytes), align: 1
  Segment part 4.             Intra module refs:   ?ShiftRight32u_11
           ENTRY                   ADDRESS         REF BY
           =====                   =======         ======
           ?ShiftRight32u_10       CFFE 
    -------------------------------------------------------------------------
<CODE> 1 (was CODE)
  Relative segment, address: D002 - D005 (0x4 bytes), align: 1
  Segment part 5.             Intra module refs:   ?ShiftRight32u_10
           ENTRY                   ADDRESS         REF BY
           =====                   =======         ======
           ?ShiftRight32u_9        D002 
    -------------------------------------------------------------------------
<CODE> 1 (was CODE)
  Relative segment, address: D006 - D011 (0xc bytes), align: 1
  Segment part 6.             Intra module refs:   ?ShiftRight32u_9
           ENTRY                   ADDRESS         REF BY
           =====                   =======         ======
           ?ShiftRight32u_8        D006 

    -------------------------------------------------------------------------
  LIBRARY MODULE, NAME : ?ShiftRight64s_n

  SEGMENTS IN THE MODULE
  ======================
<CODE> 1 (was CODE)
  Relative segment, address: C62C - C633 (0x8 bytes), align: 1
  Segment part 1.
           ENTRY                   ADDRESS         REF BY
           =====                   =======         ======
           ?ShiftRight64s_6        C62C            Segment part 33 (_IQNmpy)
                                                   _IQ30rsmpy (_IQNrsmpy)
    -------------------------------------------------------------------------
<CODE> 1 (was CODE)
  Relative segment, address: C634 - C63B (0x8 bytes), align: 1
  Segment part 2.             Intra module refs:   ?ShiftRight64s_6
           ENTRY                   ADDRESS         REF BY
           =====                   =======         ======
           ?ShiftRight64s_5        C634            Segment part 31 (_IQNmpy)
    -------------------------------------------------------------------------
<CODE> 1 (was CODE)
  Relative segment, address: C63C - C643 (0x8 bytes), align: 1
  Segment part 3.             Intra module refs:   ?ShiftRight64s_5
           ENTRY                   ADDRESS         REF BY
           =====                   =======         ======
           ?ShiftRight64s_4        C63C 
    -------------------------------------------------------------------------
<CODE> 1 (was CODE)
  Relative segment, address: C644 - C64B (0x8 bytes), align: 1
  Segment part 4.             Intra module refs:   ?ShiftRight64s_4
           ENTRY                   ADDRESS         REF BY
           =====                   =======         ======
           ?ShiftRight64s_3        C644 
    -------------------------------------------------------------------------
<CODE> 1 (was CODE)
  Relative segment, address: C64C - C65D (0x12 bytes), align: 1
  Segment part 5.             Intra module refs:   ?ShiftRight64s_3
           ENTRY                   ADDRESS         REF BY
           =====                   =======         ======
           ?ShiftRight64s_2        C64C 

    -------------------------------------------------------------------------
  LIBRARY MODULE, NAME : ?ShiftRight64u_n

  SEGMENTS IN THE MODULE
  ======================
<CODE> 1 (was CODE)
  Relative segment, address: CCAE - CCB5 (0x8 bytes), align: 1
  Segment part 3.
           ENTRY                   ADDRESS         REF BY
           =====                   =======         ======
           ?ShiftRight64u_4        CCAE            ?Subroutine1 (ussSwLibCommonSAPH)
    -------------------------------------------------------------------------
<CODE> 1 (was CODE)
  Relative segment, address: CCB6 - CCBD (0x8 bytes), align: 1
  Segment part 4.             Intra module refs:   ?ShiftRight64u_4
           ENTRY                   ADDRESS         REF BY
           =====                   =======         ======
           ?ShiftRight64u_3        CCB6 
    -------------------------------------------------------------------------
<CODE> 1 (was CODE)
  Relative segment, address: CCBE - CCCF (0x12 bytes), align: 1
  Segment part 5.             Intra module refs:   ?ShiftRight64u_3
           ENTRY                   ADDRESS         REF BY
           =====                   =======         ======
           ?ShiftRight64u_2        CCBE 

    -------------------------------------------------------------------------
  LIBRARY MODULE, NAME : ?memcpy

  SEGMENTS IN THE MODULE
  ======================
<CODE> 1 (was CODE)
  Relative segment, address: D012 - D02D (0x1c bytes), align: 1
  Segment part 2.
           ENTRY                   ADDRESS         REF BY
           =====                   =======         ======
           memcpy                  D012            Comm_writeBuffer (comm)
                                                   __data20_memcpy (?memzero)

    -------------------------------------------------------------------------
  LIBRARY MODULE, NAME : ?CopyMemoryBytes20

  SEGMENTS IN THE MODULE
  ======================
<CODE> 1 (was CODE)
  Relative segment, address: D1DC - D1EF (0x14 bytes), align: 1
  Segment part 0.
           ENTRY                   ADDRESS         REF BY
           =====                   =======         ======
           ?CopyMemoryBytes20      D1DC            CommandHandler_updateParams (ussDCCommandHandlers)

    -------------------------------------------------------------------------
  LIBRARY MODULE, NAME : ?memzero

  SEGMENTS IN THE MODULE
  ======================
<CODE> 1 (was CODE)
  Relative segment, address: D144 - D15B (0x18 bytes), align: 1
  Segment part 5.
           ENTRY                   ADDRESS         REF BY
           =====                   =======         ======
           __data20_memzero        D144            ?cstart_init_zero20 (?cstart)
    -------------------------------------------------------------------------
<CODE> 1 (was CODE)
  Relative segment, address: D6B0 - D6B3 (0x4 bytes), align: 1
  Segment part 6.
           ENTRY                   ADDRESS         REF BY
           =====                   =======         ======
           __data20_memcpy         D6B0            ?cstart_init_copy20 (?cstart)
               calls direct

    -------------------------------------------------------------------------
  LIBRARY MODULE, NAME : ?mul32s32sto64i

  SEGMENTS IN THE MODULE
  ======================
<CODE> 1 (was CODE)
  Relative segment, address: CCF2 - CD13 (0x22 bytes), align: 1
  Segment part 2.
           ENTRY                   ADDRESS         REF BY
           =====                   =======         ======
           _Mul32s32sto64i         CCF2            _IQ12rmpy (_IQNrmpy)
                                                   _IQ15rsmpy (_IQNrsmpy)
                                                   _IQ16mpy (_IQNmpy)
                                                   _IQ19rsmpy (_IQNrsmpy)
                                                   _IQ20mpy (_IQNmpy)
                                                   _IQ21mpy (_IQNmpy)
                                                   _IQ30mpy (_IQNmpy)
                                                   _IQ30rsmpy (_IQNrsmpy)
               calls direct

    -------------------------------------------------------------------------
  LIBRARY MODULE, NAME : ?Mul8Hw

  SEGMENTS IN THE MODULE
  ======================
<CODE> 1 (was CODE)
  Relative segment, address: CF32 - CF4D (0x1c bytes), align: 1
  Segment part 1.
           ENTRY                   ADDRESS         REF BY
           =====                   =======         ======
           ?Mul16Hw                CF32 
           ?Mul16to32uHw           CF32            HMI_guiInputValidation (hmi)
                                                   HMI_update_USSmeasurementConfig (hmi)
                                                   HMI_update_USSpllConfiguration (hmi)
                                                   hal_adc_voltagesupply_readmV (hal_adc)

    -------------------------------------------------------------------------
  LIBRARY MODULE, NAME : ?Mul16to32sHw

  SEGMENTS IN THE MODULE
  ======================
<CODE> 1 (was CODE)
  Relative segment, address: CF16 - CF31 (0x1c bytes), align: 1
  Segment part 0.
           ENTRY                   ADDRESS         REF BY
           =====                   =======         ======
           ?Mul16to32sHw           CF16            Segment part 10 (USS_computeDeltaTOF_estimate)
                                                   USS_computeAbsTOF_lobe_search (USS_computeAbsTOF_lobe)
                                                   _Q12rmpy (_QNrmpy)

    -------------------------------------------------------------------------
  LIBRARY MODULE, NAME : ?Mul32Hw32

  SEGMENTS IN THE MODULE
  ======================
<CODE> 1 (was CODE)
  Relative segment, address: CBB8 - CBDB (0x24 bytes), align: 1
  Segment part 0.
           ENTRY                   ADDRESS         REF BY
           =====                   =======         ======
           ?Mul32Hw32              CBB8            HMI_guiInputValidation (hmi)
                                                   HMI_updateUSSParameters (hmi)
                                                   HMI_update_USSpllConfiguration (hmi)
                                                   Segment part 4 (USS_computeDeltaTOF_estimate)
                                                   Segment part 41 (ussSwLibAlgorithms)
                                                   USS_computeDeltaTOF_estimate (USS_computeDeltaTOF_estimate)
                                                   hal_adc_voltagesupply_readmV (hal_adc)
                                                   mathematics_CalcPercentage (mathematics)

    -------------------------------------------------------------------------
  LIBRARY MODULE, NAME : ?Mul32u32uto64iHw32

  SEGMENTS IN THE MODULE
  ======================
<CODE> 1 (was CODE)
  Relative segment, address: C9CC - C9F7 (0x2c bytes), align: 1
  Segment part 0.
           ENTRY                   ADDRESS         REF BY
           =====                   =======         ======
           ?Mul32u32uto64iHw32     C9CC            ?Subroutine0 (ussSwLibCommonSAPH)
                                                   _Mul32s32sto64i (?mul32s32sto64i)

    -------------------------------------------------------------------------
  LIBRARY MODULE, NAME : ?round

  SEGMENTS IN THE MODULE
  ======================
<CODE> 1 (was CODE)
  Relative segment, address: BDE4 - BE31 (0x4e bytes), align: 1
  Segment part 2.
           ENTRY                   ADDRESS         REF BY
           =====                   =======         ======
           round                   BDE4            timeToPLLCycles (hmi)
               calls direct

    -------------------------------------------------------------------------
  LIBRARY MODULE, NAME : ?strlen

  SEGMENTS IN THE MODULE
  ======================
<CODE> 1 (was CODE)
  Relative segment, address: CDFE - CE1D (0x20 bytes), align: 1
  Segment part 2.
           ENTRY                   ADDRESS         REF BY
           =====                   =======         ======
           strlen                  CDFE            hal_lcd_displayScrollText (hal_lcd)

    -------------------------------------------------------------------------
  LIBRARY MODULE, NAME : ?xdint

  SEGMENTS IN THE MODULE
  ======================
<CODE> 1 (was CODE)
  Relative segment, address: AEB2 - AF3B (0x8a bytes), align: 1
  Segment part 2.
           ENTRY                   ADDRESS         REF BY
           =====                   =======         ======
           __iar_Dint              AEB2            round (?round)

    *************************************************************************

  FILE NAME : C:\Program Files (x86)\IAR Systems\Embedded Workbench 8.0\430\lib\MathLib\MSPMATHLIB_IAR_msp430_CPUX_large_code_large_data.lib
  PROGRAM MODULE, NAME : msp430_tables

  SEGMENTS IN THE MODULE
  ======================
DATA20_C
  Relative segment, address: DC0C - DCCB (0xc0 bytes), align: 1
  Segment part 18.
           ENTRY                   ADDRESS         REF BY
           =====                   =======         ======
           msp430_sqrt_lookup      DC0C            msp430_calc_sqrt (msp430_common)

    -------------------------------------------------------------------------
  PROGRAM MODULE, NAME : msp430_common

  SEGMENTS IN THE MODULE
  ======================
<CODE> 1 (was CODE)
  Relative segment, address: 9816 - 9913 (0xfe bytes), align: 1
  Segment part 3.
           ENTRY                   ADDRESS         REF BY
           =====                   =======         ======
           msp430_calc_sqrt        9816            sqrtf (msp430_sqrt)

    -------------------------------------------------------------------------
  PROGRAM MODULE, NAME : msp430_sqrt

  SEGMENTS IN THE MODULE
  ======================
<CODE> 1 (was CODE)
  Relative segment, address: 9BFC - 9CE3 (0xe8 bytes), align: 1
  Segment part 2.
           ENTRY                   ADDRESS         REF BY
           =====                   =======         ======
           sqrtf                   9BFC            mathematics_CalcStDevflt (mathematics)
               calls direct




                ****************************************
                *                                      *
                *      SEGMENTS IN ADDRESS ORDER       *
                *                                      *
                ****************************************


SEGMENT              SPACE    START ADDRESS   END ADDRESS     SIZE  TYPE  ALIGN
=======              =====    =============   ===========     ====  ====  =====
DATA16_AN                              0102 - 0103               2   rel    0
                                       0130 - 0131               2 
                                       015C - 015D               2 
                                       0160 - 0161               2 
                                       016A - 016B               2 
                                       019E - 019F               2 
                                       0202 - 0205               4 
                                       04C2 - 04C3               2 
                                       04C6 - 04CD               8 
                                       04D0 - 04D7               8 
                                       04E0 - 04E3               4 
                                       04E8 - 04ED               6 
                                       050E - 050F               2 
                                       05FE - 05FF               2 
                                       066E - 066F               2 
                                       0818 - 0819               2 
                                       0A84 - 0A8F               C 
                                       0A94 - 0A97               4 
                                       0A9C - 0A9F               4 
                                       0AC0 - 0AD3              14 
                                       0AF4 - 0AFB               8 
                                       0E00 - 0E01               2 
                                       0E80 - 0E81               2 
                                       0E84 - 0E89               6 
                                       0E90 - 0E9F              10 
                                       0EA4 - 0EA9               6 
                                       0EC0 - 0EC1               2 
                                       0EC6 - 0EC9               4 
                                       0ED0 - 0ED1               2 
                                       0EE0 - 0EE1               2 
                                       0EE4 - 0EE9               6 
                                       0EF0 - 0EF3               4 
CODE_I                                    1C00                       rel    1
DATA20_I                               1C00 - 1C06               7   rel    1
DATA20_Z                               1C08 - 24A8             8A1   rel    1
DATA20_N                                  24AA                       rel    1
CSTACK                                 2A00 - 2BFF             200   rel    1
LEARAM                                 2C00 - 3633             A34   rel    2
DATA16_P                                  4000                       dse    0
DATA20_P                               4000 - 5048            1049   rel    1
CSTART                                 504A - 5081              38   rel    1
ISR_CODE                               5082 - 542B             3AA   rel    1
<CODE> 1                               542C - D6CD            82A2   rel    1
DATA20_C                               D6CE - DE48             77B   rel    1
DATA20_ID                              DE4A - DE50               7   rel    1
CODE_ID                                   DE52                       rel    1
INTVEC                                 FF90 - FFEF              60   com    1
RESET                                  FFFE - FFFF               2   rel    1
VERSION                            00043FF0 - 00043FF7           8   rel    0
LIB_VERSION                        00043FF8 - 00043FFF           8   rel    0

                ****************************************
                *                                      *
                *        END OF CROSS REFERENCE        *
                *                                      *
                ****************************************

 34 534 bytes of CODE  memory
  5 340 bytes of DATA  memory (+ 152 absolute )
  6 107 bytes of CONST memory

Errors: none
Warnings: none

